
Optimization.elf:     file format elf32-avr

Sections:
Idx Name          Size      VMA       LMA       File off  Algn
  0 .data         0000022a  00800100  00003e0e  00003e82  2**0
                  CONTENTS, ALLOC, LOAD, DATA
  1 .text         00003e0e  00000000  00000000  00000074  2**1
                  CONTENTS, ALLOC, LOAD, READONLY, CODE
  2 .comment      00000030  00000000  00000000  000040ac  2**0
                  CONTENTS, READONLY
  3 .note.gnu.avr.deviceinfo 00000040  00000000  00000000  000040dc  2**2
                  CONTENTS, READONLY
  4 .debug_aranges 00000090  00000000  00000000  0000411c  2**0
                  CONTENTS, READONLY, DEBUGGING
  5 .debug_info   00001132  00000000  00000000  000041ac  2**0
                  CONTENTS, READONLY, DEBUGGING
  6 .debug_abbrev 00000916  00000000  00000000  000052de  2**0
                  CONTENTS, READONLY, DEBUGGING
  7 .debug_line   0000153c  00000000  00000000  00005bf4  2**0
                  CONTENTS, READONLY, DEBUGGING
  8 .debug_frame  00000190  00000000  00000000  00007130  2**2
                  CONTENTS, READONLY, DEBUGGING
  9 .debug_str    00004118  00000000  00000000  000072c0  2**0
                  CONTENTS, READONLY, DEBUGGING
 10 .debug_loc    000002cd  00000000  00000000  0000b3d8  2**0
                  CONTENTS, READONLY, DEBUGGING
 11 .debug_ranges 00000050  00000000  00000000  0000b6a5  2**0
                  CONTENTS, READONLY, DEBUGGING
 12 .debug_macro  00001256  00000000  00000000  0000b6f5  2**0
                  CONTENTS, READONLY, DEBUGGING

Disassembly of section .text:

00000000 <__vectors>:
       0:	33 c0       	rjmp	.+102    	; 0x68 <__ctors_end>
       2:	00 00       	nop
       4:	46 c0       	rjmp	.+140    	; 0x92 <__bad_interrupt>
       6:	00 00       	nop
       8:	44 c0       	rjmp	.+136    	; 0x92 <__bad_interrupt>
       a:	00 00       	nop
       c:	42 c0       	rjmp	.+132    	; 0x92 <__bad_interrupt>
       e:	00 00       	nop
      10:	40 c0       	rjmp	.+128    	; 0x92 <__bad_interrupt>
      12:	00 00       	nop
      14:	3e c0       	rjmp	.+124    	; 0x92 <__bad_interrupt>
      16:	00 00       	nop
      18:	3c c0       	rjmp	.+120    	; 0x92 <__bad_interrupt>
      1a:	00 00       	nop
      1c:	3a c0       	rjmp	.+116    	; 0x92 <__bad_interrupt>
      1e:	00 00       	nop
      20:	38 c0       	rjmp	.+112    	; 0x92 <__bad_interrupt>
      22:	00 00       	nop
      24:	36 c0       	rjmp	.+108    	; 0x92 <__bad_interrupt>
      26:	00 00       	nop
      28:	34 c0       	rjmp	.+104    	; 0x92 <__bad_interrupt>
      2a:	00 00       	nop
      2c:	32 c0       	rjmp	.+100    	; 0x92 <__bad_interrupt>
      2e:	00 00       	nop
      30:	30 c0       	rjmp	.+96     	; 0x92 <__bad_interrupt>
      32:	00 00       	nop
      34:	2e c0       	rjmp	.+92     	; 0x92 <__bad_interrupt>
      36:	00 00       	nop
      38:	2c c0       	rjmp	.+88     	; 0x92 <__bad_interrupt>
      3a:	00 00       	nop
      3c:	2a c0       	rjmp	.+84     	; 0x92 <__bad_interrupt>
      3e:	00 00       	nop
      40:	28 c0       	rjmp	.+80     	; 0x92 <__bad_interrupt>
      42:	00 00       	nop
      44:	26 c0       	rjmp	.+76     	; 0x92 <__bad_interrupt>
      46:	00 00       	nop
      48:	24 c0       	rjmp	.+72     	; 0x92 <__bad_interrupt>
      4a:	00 00       	nop
      4c:	22 c0       	rjmp	.+68     	; 0x92 <__bad_interrupt>
      4e:	00 00       	nop
      50:	20 c0       	rjmp	.+64     	; 0x92 <__bad_interrupt>
      52:	00 00       	nop
      54:	1e c0       	rjmp	.+60     	; 0x92 <__bad_interrupt>
      56:	00 00       	nop
      58:	1c c0       	rjmp	.+56     	; 0x92 <__bad_interrupt>
      5a:	00 00       	nop
      5c:	1a c0       	rjmp	.+52     	; 0x92 <__bad_interrupt>
      5e:	00 00       	nop
      60:	18 c0       	rjmp	.+48     	; 0x92 <__bad_interrupt>
      62:	00 00       	nop
      64:	16 c0       	rjmp	.+44     	; 0x92 <__bad_interrupt>
	...

00000068 <__ctors_end>:
      68:	11 24       	eor	r1, r1
      6a:	1f be       	out	0x3f, r1	; 63
      6c:	cf ef       	ldi	r28, 0xFF	; 255
      6e:	d8 e0       	ldi	r29, 0x08	; 8
      70:	de bf       	out	0x3e, r29	; 62
      72:	cd bf       	out	0x3d, r28	; 61

00000074 <__do_copy_data>:
      74:	13 e0       	ldi	r17, 0x03	; 3
      76:	a0 e0       	ldi	r26, 0x00	; 0
      78:	b1 e0       	ldi	r27, 0x01	; 1
      7a:	ee e0       	ldi	r30, 0x0E	; 14
      7c:	fe e3       	ldi	r31, 0x3E	; 62
      7e:	02 c0       	rjmp	.+4      	; 0x84 <__do_copy_data+0x10>
      80:	05 90       	lpm	r0, Z+
      82:	0d 92       	st	X+, r0
      84:	aa 32       	cpi	r26, 0x2A	; 42
      86:	b1 07       	cpc	r27, r17
      88:	d9 f7       	brne	.-10     	; 0x80 <__do_copy_data+0xc>
      8a:	0e 94 93 1e 	call	0x3d26	; 0x3d26 <main>
      8e:	0c 94 05 1f 	jmp	0x3e0a	; 0x3e0a <_exit>

00000092 <__bad_interrupt>:
      92:	b6 cf       	rjmp	.-148    	; 0x0 <__vectors>

00000094 <inv_shift_rows>:
      94:	1f 93       	push	r17
      96:	cf 93       	push	r28
      98:	df 93       	push	r29
      9a:	cd b7       	in	r28, 0x3d	; 61
      9c:	de b7       	in	r29, 0x3e	; 62
      9e:	fc 01       	movw	r30, r24
      a0:	15 85       	ldd	r17, Z+13	; 0x0d
      a2:	9c 01       	movw	r18, r24
      a4:	23 5f       	subi	r18, 0xF3	; 243
      a6:	3f 4f       	sbci	r19, 0xFF	; 255
      a8:	fc 01       	movw	r30, r24
      aa:	41 85       	ldd	r20, Z+9	; 0x09
      ac:	f9 01       	movw	r30, r18
      ae:	40 83       	st	Z, r20
      b0:	9c 01       	movw	r18, r24
      b2:	27 5f       	subi	r18, 0xF7	; 247
      b4:	3f 4f       	sbci	r19, 0xFF	; 255
      b6:	fc 01       	movw	r30, r24
      b8:	45 81       	ldd	r20, Z+5	; 0x05
      ba:	f9 01       	movw	r30, r18
      bc:	40 83       	st	Z, r20
      be:	9c 01       	movw	r18, r24
      c0:	2b 5f       	subi	r18, 0xFB	; 251
      c2:	3f 4f       	sbci	r19, 0xFF	; 255
      c4:	fc 01       	movw	r30, r24
      c6:	41 81       	ldd	r20, Z+1	; 0x01
      c8:	f9 01       	movw	r30, r18
      ca:	40 83       	st	Z, r20
      cc:	9c 01       	movw	r18, r24
      ce:	2f 5f       	subi	r18, 0xFF	; 255
      d0:	3f 4f       	sbci	r19, 0xFF	; 255
      d2:	f9 01       	movw	r30, r18
      d4:	10 83       	st	Z, r17
      d6:	fc 01       	movw	r30, r24
      d8:	16 85       	ldd	r17, Z+14	; 0x0e
      da:	9c 01       	movw	r18, r24
      dc:	22 5f       	subi	r18, 0xF2	; 242
      de:	3f 4f       	sbci	r19, 0xFF	; 255
      e0:	fc 01       	movw	r30, r24
      e2:	46 81       	ldd	r20, Z+6	; 0x06
      e4:	f9 01       	movw	r30, r18
      e6:	40 83       	st	Z, r20
      e8:	9c 01       	movw	r18, r24
      ea:	2a 5f       	subi	r18, 0xFA	; 250
      ec:	3f 4f       	sbci	r19, 0xFF	; 255
      ee:	f9 01       	movw	r30, r18
      f0:	10 83       	st	Z, r17
      f2:	fc 01       	movw	r30, r24
      f4:	12 85       	ldd	r17, Z+10	; 0x0a
      f6:	9c 01       	movw	r18, r24
      f8:	26 5f       	subi	r18, 0xF6	; 246
      fa:	3f 4f       	sbci	r19, 0xFF	; 255
      fc:	fc 01       	movw	r30, r24
      fe:	42 81       	ldd	r20, Z+2	; 0x02
     100:	f9 01       	movw	r30, r18
     102:	40 83       	st	Z, r20
     104:	9c 01       	movw	r18, r24
     106:	2e 5f       	subi	r18, 0xFE	; 254
     108:	3f 4f       	sbci	r19, 0xFF	; 255
     10a:	f9 01       	movw	r30, r18
     10c:	10 83       	st	Z, r17
     10e:	fc 01       	movw	r30, r24
     110:	13 81       	ldd	r17, Z+3	; 0x03
     112:	9c 01       	movw	r18, r24
     114:	2d 5f       	subi	r18, 0xFD	; 253
     116:	3f 4f       	sbci	r19, 0xFF	; 255
     118:	fc 01       	movw	r30, r24
     11a:	47 81       	ldd	r20, Z+7	; 0x07
     11c:	f9 01       	movw	r30, r18
     11e:	40 83       	st	Z, r20
     120:	9c 01       	movw	r18, r24
     122:	29 5f       	subi	r18, 0xF9	; 249
     124:	3f 4f       	sbci	r19, 0xFF	; 255
     126:	fc 01       	movw	r30, r24
     128:	43 85       	ldd	r20, Z+11	; 0x0b
     12a:	f9 01       	movw	r30, r18
     12c:	40 83       	st	Z, r20
     12e:	9c 01       	movw	r18, r24
     130:	25 5f       	subi	r18, 0xF5	; 245
     132:	3f 4f       	sbci	r19, 0xFF	; 255
     134:	fc 01       	movw	r30, r24
     136:	47 85       	ldd	r20, Z+15	; 0x0f
     138:	f9 01       	movw	r30, r18
     13a:	40 83       	st	Z, r20
     13c:	0f 96       	adiw	r24, 0x0f	; 15
     13e:	fc 01       	movw	r30, r24
     140:	10 83       	st	Z, r17
     142:	00 00       	nop
     144:	df 91       	pop	r29
     146:	cf 91       	pop	r28
     148:	1f 91       	pop	r17
     14a:	08 95       	ret

0000014c <aes_decrypt_128>:
     14c:	af 92       	push	r10
     14e:	bf 92       	push	r11
     150:	cf 92       	push	r12
     152:	df 92       	push	r13
     154:	ef 92       	push	r14
     156:	ff 92       	push	r15
     158:	0f 93       	push	r16
     15a:	1f 93       	push	r17
     15c:	cf 93       	push	r28
     15e:	df 93       	push	r29
     160:	cd b7       	in	r28, 0x3d	; 61
     162:	de b7       	in	r29, 0x3e	; 62
     164:	e4 97       	sbiw	r28, 0x34	; 52
     166:	0f b6       	in	r0, 0x3f	; 63
     168:	f8 94       	cli
     16a:	de bf       	out	0x3e, r29	; 62
     16c:	0f be       	out	0x3f, r0	; 63
     16e:	cd bf       	out	0x3d, r28	; 61
     170:	7c 01       	movw	r14, r24
     172:	cb 01       	movw	r24, r22
     174:	8a 01       	movw	r16, r20
     176:	d1 2c       	mov	r13, r1
     178:	20 ea       	ldi	r18, 0xA0	; 160
     17a:	e2 0e       	add	r14, r18
     17c:	f1 1c       	adc	r15, r1
     17e:	2d 2d       	mov	r18, r13
     180:	30 e0       	ldi	r19, 0x00	; 0
     182:	20 0f       	add	r18, r16
     184:	31 1f       	adc	r19, r17
     186:	4d 2d       	mov	r20, r13
     188:	50 e0       	ldi	r21, 0x00	; 0
     18a:	48 0f       	add	r20, r24
     18c:	59 1f       	adc	r21, r25
     18e:	fa 01       	movw	r30, r20
     190:	60 81       	ld	r22, Z
     192:	4d 2d       	mov	r20, r13
     194:	50 e0       	ldi	r21, 0x00	; 0
     196:	4e 0d       	add	r20, r14
     198:	5f 1d       	adc	r21, r15
     19a:	fa 01       	movw	r30, r20
     19c:	40 81       	ld	r20, Z
     19e:	46 27       	eor	r20, r22
     1a0:	f9 01       	movw	r30, r18
     1a2:	40 83       	st	Z, r20
     1a4:	2d 2d       	mov	r18, r13
     1a6:	dd 24       	eor	r13, r13
     1a8:	d3 94       	inc	r13
     1aa:	d2 0e       	add	r13, r18
     1ac:	2d 2d       	mov	r18, r13
     1ae:	30 e0       	ldi	r19, 0x00	; 0
     1b0:	20 0f       	add	r18, r16
     1b2:	31 1f       	adc	r19, r17
     1b4:	4d 2d       	mov	r20, r13
     1b6:	50 e0       	ldi	r21, 0x00	; 0
     1b8:	48 0f       	add	r20, r24
     1ba:	59 1f       	adc	r21, r25
     1bc:	fa 01       	movw	r30, r20
     1be:	60 81       	ld	r22, Z
     1c0:	4d 2d       	mov	r20, r13
     1c2:	50 e0       	ldi	r21, 0x00	; 0
     1c4:	4e 0d       	add	r20, r14
     1c6:	5f 1d       	adc	r21, r15
     1c8:	fa 01       	movw	r30, r20
     1ca:	40 81       	ld	r20, Z
     1cc:	46 27       	eor	r20, r22
     1ce:	f9 01       	movw	r30, r18
     1d0:	40 83       	st	Z, r20
     1d2:	2d 2d       	mov	r18, r13
     1d4:	dd 24       	eor	r13, r13
     1d6:	d3 94       	inc	r13
     1d8:	d2 0e       	add	r13, r18
     1da:	2d 2d       	mov	r18, r13
     1dc:	30 e0       	ldi	r19, 0x00	; 0
     1de:	20 0f       	add	r18, r16
     1e0:	31 1f       	adc	r19, r17
     1e2:	4d 2d       	mov	r20, r13
     1e4:	50 e0       	ldi	r21, 0x00	; 0
     1e6:	48 0f       	add	r20, r24
     1e8:	59 1f       	adc	r21, r25
     1ea:	fa 01       	movw	r30, r20
     1ec:	60 81       	ld	r22, Z
     1ee:	4d 2d       	mov	r20, r13
     1f0:	50 e0       	ldi	r21, 0x00	; 0
     1f2:	4e 0d       	add	r20, r14
     1f4:	5f 1d       	adc	r21, r15
     1f6:	fa 01       	movw	r30, r20
     1f8:	40 81       	ld	r20, Z
     1fa:	46 27       	eor	r20, r22
     1fc:	f9 01       	movw	r30, r18
     1fe:	40 83       	st	Z, r20
     200:	2d 2d       	mov	r18, r13
     202:	dd 24       	eor	r13, r13
     204:	d3 94       	inc	r13
     206:	d2 0e       	add	r13, r18
     208:	2d 2d       	mov	r18, r13
     20a:	30 e0       	ldi	r19, 0x00	; 0
     20c:	20 0f       	add	r18, r16
     20e:	31 1f       	adc	r19, r17
     210:	4d 2d       	mov	r20, r13
     212:	50 e0       	ldi	r21, 0x00	; 0
     214:	48 0f       	add	r20, r24
     216:	59 1f       	adc	r21, r25
     218:	fa 01       	movw	r30, r20
     21a:	60 81       	ld	r22, Z
     21c:	4d 2d       	mov	r20, r13
     21e:	50 e0       	ldi	r21, 0x00	; 0
     220:	4e 0d       	add	r20, r14
     222:	5f 1d       	adc	r21, r15
     224:	fa 01       	movw	r30, r20
     226:	40 81       	ld	r20, Z
     228:	46 27       	eor	r20, r22
     22a:	f9 01       	movw	r30, r18
     22c:	40 83       	st	Z, r20
     22e:	2d 2d       	mov	r18, r13
     230:	dd 24       	eor	r13, r13
     232:	d3 94       	inc	r13
     234:	d2 0e       	add	r13, r18
     236:	2d 2d       	mov	r18, r13
     238:	30 e0       	ldi	r19, 0x00	; 0
     23a:	20 0f       	add	r18, r16
     23c:	31 1f       	adc	r19, r17
     23e:	4d 2d       	mov	r20, r13
     240:	50 e0       	ldi	r21, 0x00	; 0
     242:	48 0f       	add	r20, r24
     244:	59 1f       	adc	r21, r25
     246:	fa 01       	movw	r30, r20
     248:	60 81       	ld	r22, Z
     24a:	4d 2d       	mov	r20, r13
     24c:	50 e0       	ldi	r21, 0x00	; 0
     24e:	4e 0d       	add	r20, r14
     250:	5f 1d       	adc	r21, r15
     252:	fa 01       	movw	r30, r20
     254:	40 81       	ld	r20, Z
     256:	46 27       	eor	r20, r22
     258:	f9 01       	movw	r30, r18
     25a:	40 83       	st	Z, r20
     25c:	2d 2d       	mov	r18, r13
     25e:	dd 24       	eor	r13, r13
     260:	d3 94       	inc	r13
     262:	d2 0e       	add	r13, r18
     264:	2d 2d       	mov	r18, r13
     266:	30 e0       	ldi	r19, 0x00	; 0
     268:	20 0f       	add	r18, r16
     26a:	31 1f       	adc	r19, r17
     26c:	4d 2d       	mov	r20, r13
     26e:	50 e0       	ldi	r21, 0x00	; 0
     270:	48 0f       	add	r20, r24
     272:	59 1f       	adc	r21, r25
     274:	fa 01       	movw	r30, r20
     276:	60 81       	ld	r22, Z
     278:	4d 2d       	mov	r20, r13
     27a:	50 e0       	ldi	r21, 0x00	; 0
     27c:	4e 0d       	add	r20, r14
     27e:	5f 1d       	adc	r21, r15
     280:	fa 01       	movw	r30, r20
     282:	40 81       	ld	r20, Z
     284:	46 27       	eor	r20, r22
     286:	f9 01       	movw	r30, r18
     288:	40 83       	st	Z, r20
     28a:	2d 2d       	mov	r18, r13
     28c:	dd 24       	eor	r13, r13
     28e:	d3 94       	inc	r13
     290:	d2 0e       	add	r13, r18
     292:	2d 2d       	mov	r18, r13
     294:	30 e0       	ldi	r19, 0x00	; 0
     296:	20 0f       	add	r18, r16
     298:	31 1f       	adc	r19, r17
     29a:	4d 2d       	mov	r20, r13
     29c:	50 e0       	ldi	r21, 0x00	; 0
     29e:	48 0f       	add	r20, r24
     2a0:	59 1f       	adc	r21, r25
     2a2:	fa 01       	movw	r30, r20
     2a4:	60 81       	ld	r22, Z
     2a6:	4d 2d       	mov	r20, r13
     2a8:	50 e0       	ldi	r21, 0x00	; 0
     2aa:	4e 0d       	add	r20, r14
     2ac:	5f 1d       	adc	r21, r15
     2ae:	fa 01       	movw	r30, r20
     2b0:	40 81       	ld	r20, Z
     2b2:	46 27       	eor	r20, r22
     2b4:	f9 01       	movw	r30, r18
     2b6:	40 83       	st	Z, r20
     2b8:	2d 2d       	mov	r18, r13
     2ba:	dd 24       	eor	r13, r13
     2bc:	d3 94       	inc	r13
     2be:	d2 0e       	add	r13, r18
     2c0:	2d 2d       	mov	r18, r13
     2c2:	30 e0       	ldi	r19, 0x00	; 0
     2c4:	20 0f       	add	r18, r16
     2c6:	31 1f       	adc	r19, r17
     2c8:	4d 2d       	mov	r20, r13
     2ca:	50 e0       	ldi	r21, 0x00	; 0
     2cc:	48 0f       	add	r20, r24
     2ce:	59 1f       	adc	r21, r25
     2d0:	fa 01       	movw	r30, r20
     2d2:	60 81       	ld	r22, Z
     2d4:	4d 2d       	mov	r20, r13
     2d6:	50 e0       	ldi	r21, 0x00	; 0
     2d8:	4e 0d       	add	r20, r14
     2da:	5f 1d       	adc	r21, r15
     2dc:	fa 01       	movw	r30, r20
     2de:	40 81       	ld	r20, Z
     2e0:	46 27       	eor	r20, r22
     2e2:	f9 01       	movw	r30, r18
     2e4:	40 83       	st	Z, r20
     2e6:	2d 2d       	mov	r18, r13
     2e8:	dd 24       	eor	r13, r13
     2ea:	d3 94       	inc	r13
     2ec:	d2 0e       	add	r13, r18
     2ee:	2d 2d       	mov	r18, r13
     2f0:	30 e0       	ldi	r19, 0x00	; 0
     2f2:	20 0f       	add	r18, r16
     2f4:	31 1f       	adc	r19, r17
     2f6:	4d 2d       	mov	r20, r13
     2f8:	50 e0       	ldi	r21, 0x00	; 0
     2fa:	48 0f       	add	r20, r24
     2fc:	59 1f       	adc	r21, r25
     2fe:	fa 01       	movw	r30, r20
     300:	60 81       	ld	r22, Z
     302:	4d 2d       	mov	r20, r13
     304:	50 e0       	ldi	r21, 0x00	; 0
     306:	4e 0d       	add	r20, r14
     308:	5f 1d       	adc	r21, r15
     30a:	fa 01       	movw	r30, r20
     30c:	40 81       	ld	r20, Z
     30e:	46 27       	eor	r20, r22
     310:	f9 01       	movw	r30, r18
     312:	40 83       	st	Z, r20
     314:	2d 2d       	mov	r18, r13
     316:	dd 24       	eor	r13, r13
     318:	d3 94       	inc	r13
     31a:	d2 0e       	add	r13, r18
     31c:	2d 2d       	mov	r18, r13
     31e:	30 e0       	ldi	r19, 0x00	; 0
     320:	20 0f       	add	r18, r16
     322:	31 1f       	adc	r19, r17
     324:	4d 2d       	mov	r20, r13
     326:	50 e0       	ldi	r21, 0x00	; 0
     328:	48 0f       	add	r20, r24
     32a:	59 1f       	adc	r21, r25
     32c:	fa 01       	movw	r30, r20
     32e:	60 81       	ld	r22, Z
     330:	4d 2d       	mov	r20, r13
     332:	50 e0       	ldi	r21, 0x00	; 0
     334:	4e 0d       	add	r20, r14
     336:	5f 1d       	adc	r21, r15
     338:	fa 01       	movw	r30, r20
     33a:	40 81       	ld	r20, Z
     33c:	46 27       	eor	r20, r22
     33e:	f9 01       	movw	r30, r18
     340:	40 83       	st	Z, r20
     342:	2d 2d       	mov	r18, r13
     344:	dd 24       	eor	r13, r13
     346:	d3 94       	inc	r13
     348:	d2 0e       	add	r13, r18
     34a:	2d 2d       	mov	r18, r13
     34c:	30 e0       	ldi	r19, 0x00	; 0
     34e:	20 0f       	add	r18, r16
     350:	31 1f       	adc	r19, r17
     352:	4d 2d       	mov	r20, r13
     354:	50 e0       	ldi	r21, 0x00	; 0
     356:	48 0f       	add	r20, r24
     358:	59 1f       	adc	r21, r25
     35a:	fa 01       	movw	r30, r20
     35c:	60 81       	ld	r22, Z
     35e:	4d 2d       	mov	r20, r13
     360:	50 e0       	ldi	r21, 0x00	; 0
     362:	4e 0d       	add	r20, r14
     364:	5f 1d       	adc	r21, r15
     366:	fa 01       	movw	r30, r20
     368:	40 81       	ld	r20, Z
     36a:	46 27       	eor	r20, r22
     36c:	f9 01       	movw	r30, r18
     36e:	40 83       	st	Z, r20
     370:	2d 2d       	mov	r18, r13
     372:	dd 24       	eor	r13, r13
     374:	d3 94       	inc	r13
     376:	d2 0e       	add	r13, r18
     378:	2d 2d       	mov	r18, r13
     37a:	30 e0       	ldi	r19, 0x00	; 0
     37c:	20 0f       	add	r18, r16
     37e:	31 1f       	adc	r19, r17
     380:	4d 2d       	mov	r20, r13
     382:	50 e0       	ldi	r21, 0x00	; 0
     384:	48 0f       	add	r20, r24
     386:	59 1f       	adc	r21, r25
     388:	fa 01       	movw	r30, r20
     38a:	60 81       	ld	r22, Z
     38c:	4d 2d       	mov	r20, r13
     38e:	50 e0       	ldi	r21, 0x00	; 0
     390:	4e 0d       	add	r20, r14
     392:	5f 1d       	adc	r21, r15
     394:	fa 01       	movw	r30, r20
     396:	40 81       	ld	r20, Z
     398:	46 27       	eor	r20, r22
     39a:	f9 01       	movw	r30, r18
     39c:	40 83       	st	Z, r20
     39e:	2d 2d       	mov	r18, r13
     3a0:	dd 24       	eor	r13, r13
     3a2:	d3 94       	inc	r13
     3a4:	d2 0e       	add	r13, r18
     3a6:	2d 2d       	mov	r18, r13
     3a8:	30 e0       	ldi	r19, 0x00	; 0
     3aa:	20 0f       	add	r18, r16
     3ac:	31 1f       	adc	r19, r17
     3ae:	4d 2d       	mov	r20, r13
     3b0:	50 e0       	ldi	r21, 0x00	; 0
     3b2:	48 0f       	add	r20, r24
     3b4:	59 1f       	adc	r21, r25
     3b6:	fa 01       	movw	r30, r20
     3b8:	60 81       	ld	r22, Z
     3ba:	4d 2d       	mov	r20, r13
     3bc:	50 e0       	ldi	r21, 0x00	; 0
     3be:	4e 0d       	add	r20, r14
     3c0:	5f 1d       	adc	r21, r15
     3c2:	fa 01       	movw	r30, r20
     3c4:	40 81       	ld	r20, Z
     3c6:	46 27       	eor	r20, r22
     3c8:	f9 01       	movw	r30, r18
     3ca:	40 83       	st	Z, r20
     3cc:	2d 2d       	mov	r18, r13
     3ce:	dd 24       	eor	r13, r13
     3d0:	d3 94       	inc	r13
     3d2:	d2 0e       	add	r13, r18
     3d4:	2d 2d       	mov	r18, r13
     3d6:	30 e0       	ldi	r19, 0x00	; 0
     3d8:	20 0f       	add	r18, r16
     3da:	31 1f       	adc	r19, r17
     3dc:	4d 2d       	mov	r20, r13
     3de:	50 e0       	ldi	r21, 0x00	; 0
     3e0:	48 0f       	add	r20, r24
     3e2:	59 1f       	adc	r21, r25
     3e4:	fa 01       	movw	r30, r20
     3e6:	60 81       	ld	r22, Z
     3e8:	4d 2d       	mov	r20, r13
     3ea:	50 e0       	ldi	r21, 0x00	; 0
     3ec:	4e 0d       	add	r20, r14
     3ee:	5f 1d       	adc	r21, r15
     3f0:	fa 01       	movw	r30, r20
     3f2:	40 81       	ld	r20, Z
     3f4:	46 27       	eor	r20, r22
     3f6:	f9 01       	movw	r30, r18
     3f8:	40 83       	st	Z, r20
     3fa:	2d 2d       	mov	r18, r13
     3fc:	dd 24       	eor	r13, r13
     3fe:	d3 94       	inc	r13
     400:	d2 0e       	add	r13, r18
     402:	2d 2d       	mov	r18, r13
     404:	30 e0       	ldi	r19, 0x00	; 0
     406:	20 0f       	add	r18, r16
     408:	31 1f       	adc	r19, r17
     40a:	4d 2d       	mov	r20, r13
     40c:	50 e0       	ldi	r21, 0x00	; 0
     40e:	48 0f       	add	r20, r24
     410:	59 1f       	adc	r21, r25
     412:	fa 01       	movw	r30, r20
     414:	60 81       	ld	r22, Z
     416:	4d 2d       	mov	r20, r13
     418:	50 e0       	ldi	r21, 0x00	; 0
     41a:	4e 0d       	add	r20, r14
     41c:	5f 1d       	adc	r21, r15
     41e:	fa 01       	movw	r30, r20
     420:	40 81       	ld	r20, Z
     422:	46 27       	eor	r20, r22
     424:	f9 01       	movw	r30, r18
     426:	40 83       	st	Z, r20
     428:	2d 2d       	mov	r18, r13
     42a:	dd 24       	eor	r13, r13
     42c:	d3 94       	inc	r13
     42e:	d2 0e       	add	r13, r18
     430:	2d 2d       	mov	r18, r13
     432:	30 e0       	ldi	r19, 0x00	; 0
     434:	20 0f       	add	r18, r16
     436:	31 1f       	adc	r19, r17
     438:	4d 2d       	mov	r20, r13
     43a:	50 e0       	ldi	r21, 0x00	; 0
     43c:	84 0f       	add	r24, r20
     43e:	95 1f       	adc	r25, r21
     440:	fc 01       	movw	r30, r24
     442:	40 81       	ld	r20, Z
     444:	8d 2d       	mov	r24, r13
     446:	90 e0       	ldi	r25, 0x00	; 0
     448:	8e 0d       	add	r24, r14
     44a:	9f 1d       	adc	r25, r15
     44c:	fc 01       	movw	r30, r24
     44e:	80 81       	ld	r24, Z
     450:	84 27       	eor	r24, r20
     452:	f9 01       	movw	r30, r18
     454:	80 83       	st	Z, r24
     456:	f0 e1       	ldi	r31, 0x10	; 16
     458:	ef 1a       	sub	r14, r31
     45a:	f1 08       	sbc	r15, r1
     45c:	c8 01       	movw	r24, r16
     45e:	1a de       	rcall	.-972    	; 0x94 <inv_shift_rows>
     460:	d1 2c       	mov	r13, r1
     462:	13 c0       	rjmp	.+38     	; 0x48a <__LOCK_REGION_LENGTH__+0x8a>
     464:	8d 2d       	mov	r24, r13
     466:	90 e0       	ldi	r25, 0x00	; 0
     468:	80 0f       	add	r24, r16
     46a:	91 1f       	adc	r25, r17
     46c:	2d 2d       	mov	r18, r13
     46e:	30 e0       	ldi	r19, 0x00	; 0
     470:	20 0f       	add	r18, r16
     472:	31 1f       	adc	r19, r17
     474:	f9 01       	movw	r30, r18
     476:	20 81       	ld	r18, Z
     478:	22 2f       	mov	r18, r18
     47a:	30 e0       	ldi	r19, 0x00	; 0
     47c:	20 50       	subi	r18, 0x00	; 0
     47e:	3f 4f       	sbci	r19, 0xFF	; 255
     480:	f9 01       	movw	r30, r18
     482:	20 81       	ld	r18, Z
     484:	fc 01       	movw	r30, r24
     486:	20 83       	st	Z, r18
     488:	d3 94       	inc	r13
     48a:	ff e0       	ldi	r31, 0x0F	; 15
     48c:	fd 15       	cp	r31, r13
     48e:	50 f7       	brcc	.-44     	; 0x464 <__LOCK_REGION_LENGTH__+0x64>
     490:	aa 24       	eor	r10, r10
     492:	a3 94       	inc	r10
     494:	5e c5       	rjmp	.+2748   	; 0xf52 <__stack+0x653>
     496:	f8 01       	movw	r30, r16
     498:	90 81       	ld	r25, Z
     49a:	f7 01       	movw	r30, r14
     49c:	80 81       	ld	r24, Z
     49e:	89 27       	eor	r24, r25
     4a0:	8d a3       	std	Y+37, r24	; 0x25
     4a2:	c8 01       	movw	r24, r16
     4a4:	01 96       	adiw	r24, 0x01	; 1
     4a6:	fc 01       	movw	r30, r24
     4a8:	20 81       	ld	r18, Z
     4aa:	c7 01       	movw	r24, r14
     4ac:	01 96       	adiw	r24, 0x01	; 1
     4ae:	fc 01       	movw	r30, r24
     4b0:	80 81       	ld	r24, Z
     4b2:	82 27       	eor	r24, r18
     4b4:	8e a3       	std	Y+38, r24	; 0x26
     4b6:	c8 01       	movw	r24, r16
     4b8:	02 96       	adiw	r24, 0x02	; 2
     4ba:	fc 01       	movw	r30, r24
     4bc:	20 81       	ld	r18, Z
     4be:	c7 01       	movw	r24, r14
     4c0:	02 96       	adiw	r24, 0x02	; 2
     4c2:	fc 01       	movw	r30, r24
     4c4:	80 81       	ld	r24, Z
     4c6:	82 27       	eor	r24, r18
     4c8:	8f a3       	std	Y+39, r24	; 0x27
     4ca:	c8 01       	movw	r24, r16
     4cc:	03 96       	adiw	r24, 0x03	; 3
     4ce:	fc 01       	movw	r30, r24
     4d0:	20 81       	ld	r18, Z
     4d2:	c7 01       	movw	r24, r14
     4d4:	03 96       	adiw	r24, 0x03	; 3
     4d6:	fc 01       	movw	r30, r24
     4d8:	80 81       	ld	r24, Z
     4da:	82 27       	eor	r24, r18
     4dc:	88 a7       	std	Y+40, r24	; 0x28
     4de:	c8 01       	movw	r24, r16
     4e0:	04 96       	adiw	r24, 0x04	; 4
     4e2:	fc 01       	movw	r30, r24
     4e4:	20 81       	ld	r18, Z
     4e6:	c7 01       	movw	r24, r14
     4e8:	04 96       	adiw	r24, 0x04	; 4
     4ea:	fc 01       	movw	r30, r24
     4ec:	80 81       	ld	r24, Z
     4ee:	82 27       	eor	r24, r18
     4f0:	89 a7       	std	Y+41, r24	; 0x29
     4f2:	c8 01       	movw	r24, r16
     4f4:	05 96       	adiw	r24, 0x05	; 5
     4f6:	fc 01       	movw	r30, r24
     4f8:	20 81       	ld	r18, Z
     4fa:	c7 01       	movw	r24, r14
     4fc:	05 96       	adiw	r24, 0x05	; 5
     4fe:	fc 01       	movw	r30, r24
     500:	80 81       	ld	r24, Z
     502:	82 27       	eor	r24, r18
     504:	8a a7       	std	Y+42, r24	; 0x2a
     506:	c8 01       	movw	r24, r16
     508:	06 96       	adiw	r24, 0x06	; 6
     50a:	fc 01       	movw	r30, r24
     50c:	20 81       	ld	r18, Z
     50e:	c7 01       	movw	r24, r14
     510:	06 96       	adiw	r24, 0x06	; 6
     512:	fc 01       	movw	r30, r24
     514:	80 81       	ld	r24, Z
     516:	82 27       	eor	r24, r18
     518:	8b a7       	std	Y+43, r24	; 0x2b
     51a:	c8 01       	movw	r24, r16
     51c:	07 96       	adiw	r24, 0x07	; 7
     51e:	fc 01       	movw	r30, r24
     520:	20 81       	ld	r18, Z
     522:	c7 01       	movw	r24, r14
     524:	07 96       	adiw	r24, 0x07	; 7
     526:	fc 01       	movw	r30, r24
     528:	80 81       	ld	r24, Z
     52a:	82 27       	eor	r24, r18
     52c:	8c a7       	std	Y+44, r24	; 0x2c
     52e:	c8 01       	movw	r24, r16
     530:	08 96       	adiw	r24, 0x08	; 8
     532:	fc 01       	movw	r30, r24
     534:	20 81       	ld	r18, Z
     536:	c7 01       	movw	r24, r14
     538:	08 96       	adiw	r24, 0x08	; 8
     53a:	fc 01       	movw	r30, r24
     53c:	80 81       	ld	r24, Z
     53e:	82 27       	eor	r24, r18
     540:	8d a7       	std	Y+45, r24	; 0x2d
     542:	c8 01       	movw	r24, r16
     544:	09 96       	adiw	r24, 0x09	; 9
     546:	fc 01       	movw	r30, r24
     548:	20 81       	ld	r18, Z
     54a:	c7 01       	movw	r24, r14
     54c:	09 96       	adiw	r24, 0x09	; 9
     54e:	fc 01       	movw	r30, r24
     550:	80 81       	ld	r24, Z
     552:	82 27       	eor	r24, r18
     554:	8e a7       	std	Y+46, r24	; 0x2e
     556:	c8 01       	movw	r24, r16
     558:	0a 96       	adiw	r24, 0x0a	; 10
     55a:	fc 01       	movw	r30, r24
     55c:	20 81       	ld	r18, Z
     55e:	c7 01       	movw	r24, r14
     560:	0a 96       	adiw	r24, 0x0a	; 10
     562:	fc 01       	movw	r30, r24
     564:	80 81       	ld	r24, Z
     566:	82 27       	eor	r24, r18
     568:	8f a7       	std	Y+47, r24	; 0x2f
     56a:	c8 01       	movw	r24, r16
     56c:	0b 96       	adiw	r24, 0x0b	; 11
     56e:	fc 01       	movw	r30, r24
     570:	20 81       	ld	r18, Z
     572:	c7 01       	movw	r24, r14
     574:	0b 96       	adiw	r24, 0x0b	; 11
     576:	fc 01       	movw	r30, r24
     578:	80 81       	ld	r24, Z
     57a:	82 27       	eor	r24, r18
     57c:	88 ab       	std	Y+48, r24	; 0x30
     57e:	c8 01       	movw	r24, r16
     580:	0c 96       	adiw	r24, 0x0c	; 12
     582:	fc 01       	movw	r30, r24
     584:	20 81       	ld	r18, Z
     586:	c7 01       	movw	r24, r14
     588:	0c 96       	adiw	r24, 0x0c	; 12
     58a:	fc 01       	movw	r30, r24
     58c:	80 81       	ld	r24, Z
     58e:	82 27       	eor	r24, r18
     590:	89 ab       	std	Y+49, r24	; 0x31
     592:	c8 01       	movw	r24, r16
     594:	0d 96       	adiw	r24, 0x0d	; 13
     596:	fc 01       	movw	r30, r24
     598:	20 81       	ld	r18, Z
     59a:	c7 01       	movw	r24, r14
     59c:	0d 96       	adiw	r24, 0x0d	; 13
     59e:	fc 01       	movw	r30, r24
     5a0:	80 81       	ld	r24, Z
     5a2:	82 27       	eor	r24, r18
     5a4:	8a ab       	std	Y+50, r24	; 0x32
     5a6:	c8 01       	movw	r24, r16
     5a8:	0e 96       	adiw	r24, 0x0e	; 14
     5aa:	fc 01       	movw	r30, r24
     5ac:	20 81       	ld	r18, Z
     5ae:	c7 01       	movw	r24, r14
     5b0:	0e 96       	adiw	r24, 0x0e	; 14
     5b2:	fc 01       	movw	r30, r24
     5b4:	80 81       	ld	r24, Z
     5b6:	82 27       	eor	r24, r18
     5b8:	8b ab       	std	Y+51, r24	; 0x33
     5ba:	c8 01       	movw	r24, r16
     5bc:	0f 96       	adiw	r24, 0x0f	; 15
     5be:	fc 01       	movw	r30, r24
     5c0:	20 81       	ld	r18, Z
     5c2:	c7 01       	movw	r24, r14
     5c4:	0f 96       	adiw	r24, 0x0f	; 15
     5c6:	fc 01       	movw	r30, r24
     5c8:	80 81       	ld	r24, Z
     5ca:	82 27       	eor	r24, r18
     5cc:	8c ab       	std	Y+52, r24	; 0x34
     5ce:	9d a1       	ldd	r25, Y+37	; 0x25
     5d0:	8e a1       	ldd	r24, Y+38	; 0x26
     5d2:	98 27       	eor	r25, r24
     5d4:	8f a1       	ldd	r24, Y+39	; 0x27
     5d6:	98 27       	eor	r25, r24
     5d8:	88 a5       	ldd	r24, Y+40	; 0x28
     5da:	d9 2e       	mov	r13, r25
     5dc:	d8 26       	eor	r13, r24
     5de:	8d a1       	ldd	r24, Y+37	; 0x25
     5e0:	28 2f       	mov	r18, r24
     5e2:	2d 25       	eor	r18, r13
     5e4:	9d a1       	ldd	r25, Y+37	; 0x25
     5e6:	8e a1       	ldd	r24, Y+38	; 0x26
     5e8:	89 27       	eor	r24, r25
     5ea:	89 83       	std	Y+1, r24	; 0x01
     5ec:	89 81       	ldd	r24, Y+1	; 0x01
     5ee:	88 23       	and	r24, r24
     5f0:	4c f4       	brge	.+18     	; 0x604 <__LOCK_REGION_LENGTH__+0x204>
     5f2:	89 81       	ldd	r24, Y+1	; 0x01
     5f4:	88 2f       	mov	r24, r24
     5f6:	90 e0       	ldi	r25, 0x00	; 0
     5f8:	88 0f       	add	r24, r24
     5fa:	99 1f       	adc	r25, r25
     5fc:	98 2f       	mov	r25, r24
     5fe:	8b e1       	ldi	r24, 0x1B	; 27
     600:	89 27       	eor	r24, r25
     602:	02 c0       	rjmp	.+4      	; 0x608 <__LOCK_REGION_LENGTH__+0x208>
     604:	89 81       	ldd	r24, Y+1	; 0x01
     606:	88 0f       	add	r24, r24
     608:	82 27       	eor	r24, r18
     60a:	f8 01       	movw	r30, r16
     60c:	80 83       	st	Z, r24
     60e:	c8 01       	movw	r24, r16
     610:	01 96       	adiw	r24, 0x01	; 1
     612:	2e a1       	ldd	r18, Y+38	; 0x26
     614:	42 2f       	mov	r20, r18
     616:	4d 25       	eor	r20, r13
     618:	3e a1       	ldd	r19, Y+38	; 0x26
     61a:	2f a1       	ldd	r18, Y+39	; 0x27
     61c:	23 27       	eor	r18, r19
     61e:	2a 83       	std	Y+2, r18	; 0x02
     620:	2a 81       	ldd	r18, Y+2	; 0x02
     622:	22 23       	and	r18, r18
     624:	4c f4       	brge	.+18     	; 0x638 <__LOCK_REGION_LENGTH__+0x238>
     626:	2a 81       	ldd	r18, Y+2	; 0x02
     628:	22 2f       	mov	r18, r18
     62a:	30 e0       	ldi	r19, 0x00	; 0
     62c:	22 0f       	add	r18, r18
     62e:	33 1f       	adc	r19, r19
     630:	32 2f       	mov	r19, r18
     632:	2b e1       	ldi	r18, 0x1B	; 27
     634:	23 27       	eor	r18, r19
     636:	02 c0       	rjmp	.+4      	; 0x63c <__LOCK_REGION_LENGTH__+0x23c>
     638:	2a 81       	ldd	r18, Y+2	; 0x02
     63a:	22 0f       	add	r18, r18
     63c:	24 27       	eor	r18, r20
     63e:	fc 01       	movw	r30, r24
     640:	20 83       	st	Z, r18
     642:	c8 01       	movw	r24, r16
     644:	02 96       	adiw	r24, 0x02	; 2
     646:	2f a1       	ldd	r18, Y+39	; 0x27
     648:	42 2f       	mov	r20, r18
     64a:	4d 25       	eor	r20, r13
     64c:	3f a1       	ldd	r19, Y+39	; 0x27
     64e:	28 a5       	ldd	r18, Y+40	; 0x28
     650:	23 27       	eor	r18, r19
     652:	2b 83       	std	Y+3, r18	; 0x03
     654:	2b 81       	ldd	r18, Y+3	; 0x03
     656:	22 23       	and	r18, r18
     658:	4c f4       	brge	.+18     	; 0x66c <__LOCK_REGION_LENGTH__+0x26c>
     65a:	2b 81       	ldd	r18, Y+3	; 0x03
     65c:	22 2f       	mov	r18, r18
     65e:	30 e0       	ldi	r19, 0x00	; 0
     660:	22 0f       	add	r18, r18
     662:	33 1f       	adc	r19, r19
     664:	32 2f       	mov	r19, r18
     666:	2b e1       	ldi	r18, 0x1B	; 27
     668:	23 27       	eor	r18, r19
     66a:	02 c0       	rjmp	.+4      	; 0x670 <__LOCK_REGION_LENGTH__+0x270>
     66c:	2b 81       	ldd	r18, Y+3	; 0x03
     66e:	22 0f       	add	r18, r18
     670:	24 27       	eor	r18, r20
     672:	fc 01       	movw	r30, r24
     674:	20 83       	st	Z, r18
     676:	c8 01       	movw	r24, r16
     678:	03 96       	adiw	r24, 0x03	; 3
     67a:	28 a5       	ldd	r18, Y+40	; 0x28
     67c:	42 2f       	mov	r20, r18
     67e:	4d 25       	eor	r20, r13
     680:	38 a5       	ldd	r19, Y+40	; 0x28
     682:	2d a1       	ldd	r18, Y+37	; 0x25
     684:	23 27       	eor	r18, r19
     686:	2c 83       	std	Y+4, r18	; 0x04
     688:	2c 81       	ldd	r18, Y+4	; 0x04
     68a:	22 23       	and	r18, r18
     68c:	4c f4       	brge	.+18     	; 0x6a0 <__LOCK_REGION_LENGTH__+0x2a0>
     68e:	2c 81       	ldd	r18, Y+4	; 0x04
     690:	22 2f       	mov	r18, r18
     692:	30 e0       	ldi	r19, 0x00	; 0
     694:	22 0f       	add	r18, r18
     696:	33 1f       	adc	r19, r19
     698:	32 2f       	mov	r19, r18
     69a:	2b e1       	ldi	r18, 0x1B	; 27
     69c:	23 27       	eor	r18, r19
     69e:	02 c0       	rjmp	.+4      	; 0x6a4 <__LOCK_REGION_LENGTH__+0x2a4>
     6a0:	2c 81       	ldd	r18, Y+4	; 0x04
     6a2:	22 0f       	add	r18, r18
     6a4:	24 27       	eor	r18, r20
     6a6:	fc 01       	movw	r30, r24
     6a8:	20 83       	st	Z, r18
     6aa:	9d a1       	ldd	r25, Y+37	; 0x25
     6ac:	8f a1       	ldd	r24, Y+39	; 0x27
     6ae:	89 27       	eor	r24, r25
     6b0:	8d 83       	std	Y+5, r24	; 0x05
     6b2:	8d 81       	ldd	r24, Y+5	; 0x05
     6b4:	88 23       	and	r24, r24
     6b6:	4c f4       	brge	.+18     	; 0x6ca <__LOCK_REGION_LENGTH__+0x2ca>
     6b8:	8d 81       	ldd	r24, Y+5	; 0x05
     6ba:	88 2f       	mov	r24, r24
     6bc:	90 e0       	ldi	r25, 0x00	; 0
     6be:	88 0f       	add	r24, r24
     6c0:	99 1f       	adc	r25, r25
     6c2:	98 2f       	mov	r25, r24
     6c4:	8b e1       	ldi	r24, 0x1B	; 27
     6c6:	89 27       	eor	r24, r25
     6c8:	02 c0       	rjmp	.+4      	; 0x6ce <__LOCK_REGION_LENGTH__+0x2ce>
     6ca:	8d 81       	ldd	r24, Y+5	; 0x05
     6cc:	88 0f       	add	r24, r24
     6ce:	8e 83       	std	Y+6, r24	; 0x06
     6d0:	8e 81       	ldd	r24, Y+6	; 0x06
     6d2:	88 23       	and	r24, r24
     6d4:	4c f4       	brge	.+18     	; 0x6e8 <__LOCK_REGION_LENGTH__+0x2e8>
     6d6:	8e 81       	ldd	r24, Y+6	; 0x06
     6d8:	88 2f       	mov	r24, r24
     6da:	90 e0       	ldi	r25, 0x00	; 0
     6dc:	88 0f       	add	r24, r24
     6de:	99 1f       	adc	r25, r25
     6e0:	98 2f       	mov	r25, r24
     6e2:	8b e1       	ldi	r24, 0x1B	; 27
     6e4:	89 27       	eor	r24, r25
     6e6:	02 c0       	rjmp	.+4      	; 0x6ec <__LOCK_REGION_LENGTH__+0x2ec>
     6e8:	8e 81       	ldd	r24, Y+6	; 0x06
     6ea:	88 0f       	add	r24, r24
     6ec:	b8 2e       	mov	r11, r24
     6ee:	9e a1       	ldd	r25, Y+38	; 0x26
     6f0:	88 a5       	ldd	r24, Y+40	; 0x28
     6f2:	89 27       	eor	r24, r25
     6f4:	8f 83       	std	Y+7, r24	; 0x07
     6f6:	8f 81       	ldd	r24, Y+7	; 0x07
     6f8:	88 23       	and	r24, r24
     6fa:	4c f4       	brge	.+18     	; 0x70e <__LOCK_REGION_LENGTH__+0x30e>
     6fc:	8f 81       	ldd	r24, Y+7	; 0x07
     6fe:	88 2f       	mov	r24, r24
     700:	90 e0       	ldi	r25, 0x00	; 0
     702:	88 0f       	add	r24, r24
     704:	99 1f       	adc	r25, r25
     706:	98 2f       	mov	r25, r24
     708:	8b e1       	ldi	r24, 0x1B	; 27
     70a:	89 27       	eor	r24, r25
     70c:	02 c0       	rjmp	.+4      	; 0x712 <__LOCK_REGION_LENGTH__+0x312>
     70e:	8f 81       	ldd	r24, Y+7	; 0x07
     710:	88 0f       	add	r24, r24
     712:	88 87       	std	Y+8, r24	; 0x08
     714:	88 85       	ldd	r24, Y+8	; 0x08
     716:	88 23       	and	r24, r24
     718:	4c f4       	brge	.+18     	; 0x72c <__LOCK_REGION_LENGTH__+0x32c>
     71a:	88 85       	ldd	r24, Y+8	; 0x08
     71c:	88 2f       	mov	r24, r24
     71e:	90 e0       	ldi	r25, 0x00	; 0
     720:	88 0f       	add	r24, r24
     722:	99 1f       	adc	r25, r25
     724:	98 2f       	mov	r25, r24
     726:	8b e1       	ldi	r24, 0x1B	; 27
     728:	89 27       	eor	r24, r25
     72a:	02 c0       	rjmp	.+4      	; 0x730 <__LOCK_REGION_LENGTH__+0x330>
     72c:	88 85       	ldd	r24, Y+8	; 0x08
     72e:	88 0f       	add	r24, r24
     730:	c8 2e       	mov	r12, r24
     732:	8b 2d       	mov	r24, r11
     734:	8c 25       	eor	r24, r12
     736:	89 87       	std	Y+9, r24	; 0x09
     738:	89 85       	ldd	r24, Y+9	; 0x09
     73a:	88 23       	and	r24, r24
     73c:	4c f4       	brge	.+18     	; 0x750 <__LOCK_REGION_LENGTH__+0x350>
     73e:	89 85       	ldd	r24, Y+9	; 0x09
     740:	88 2f       	mov	r24, r24
     742:	90 e0       	ldi	r25, 0x00	; 0
     744:	88 0f       	add	r24, r24
     746:	99 1f       	adc	r25, r25
     748:	98 2f       	mov	r25, r24
     74a:	8b e1       	ldi	r24, 0x1B	; 27
     74c:	89 27       	eor	r24, r25
     74e:	02 c0       	rjmp	.+4      	; 0x754 <__LOCK_REGION_LENGTH__+0x354>
     750:	89 85       	ldd	r24, Y+9	; 0x09
     752:	88 0f       	add	r24, r24
     754:	d8 2e       	mov	r13, r24
     756:	f8 01       	movw	r30, r16
     758:	90 81       	ld	r25, Z
     75a:	8d 2d       	mov	r24, r13
     75c:	8b 25       	eor	r24, r11
     75e:	89 27       	eor	r24, r25
     760:	f8 01       	movw	r30, r16
     762:	80 83       	st	Z, r24
     764:	c8 01       	movw	r24, r16
     766:	01 96       	adiw	r24, 0x01	; 1
     768:	98 01       	movw	r18, r16
     76a:	2f 5f       	subi	r18, 0xFF	; 255
     76c:	3f 4f       	sbci	r19, 0xFF	; 255
     76e:	f9 01       	movw	r30, r18
     770:	30 81       	ld	r19, Z
     772:	2d 2d       	mov	r18, r13
     774:	2c 25       	eor	r18, r12
     776:	23 27       	eor	r18, r19
     778:	fc 01       	movw	r30, r24
     77a:	20 83       	st	Z, r18
     77c:	c8 01       	movw	r24, r16
     77e:	02 96       	adiw	r24, 0x02	; 2
     780:	98 01       	movw	r18, r16
     782:	2e 5f       	subi	r18, 0xFE	; 254
     784:	3f 4f       	sbci	r19, 0xFF	; 255
     786:	f9 01       	movw	r30, r18
     788:	30 81       	ld	r19, Z
     78a:	2d 2d       	mov	r18, r13
     78c:	2b 25       	eor	r18, r11
     78e:	23 27       	eor	r18, r19
     790:	fc 01       	movw	r30, r24
     792:	20 83       	st	Z, r18
     794:	c8 01       	movw	r24, r16
     796:	03 96       	adiw	r24, 0x03	; 3
     798:	98 01       	movw	r18, r16
     79a:	2d 5f       	subi	r18, 0xFD	; 253
     79c:	3f 4f       	sbci	r19, 0xFF	; 255
     79e:	f9 01       	movw	r30, r18
     7a0:	30 81       	ld	r19, Z
     7a2:	2d 2d       	mov	r18, r13
     7a4:	2c 25       	eor	r18, r12
     7a6:	23 27       	eor	r18, r19
     7a8:	fc 01       	movw	r30, r24
     7aa:	20 83       	st	Z, r18
     7ac:	99 a5       	ldd	r25, Y+41	; 0x29
     7ae:	8a a5       	ldd	r24, Y+42	; 0x2a
     7b0:	98 27       	eor	r25, r24
     7b2:	8b a5       	ldd	r24, Y+43	; 0x2b
     7b4:	98 27       	eor	r25, r24
     7b6:	8c a5       	ldd	r24, Y+44	; 0x2c
     7b8:	d9 2e       	mov	r13, r25
     7ba:	d8 26       	eor	r13, r24
     7bc:	c8 01       	movw	r24, r16
     7be:	04 96       	adiw	r24, 0x04	; 4
     7c0:	29 a5       	ldd	r18, Y+41	; 0x29
     7c2:	42 2f       	mov	r20, r18
     7c4:	4d 25       	eor	r20, r13
     7c6:	39 a5       	ldd	r19, Y+41	; 0x29
     7c8:	2a a5       	ldd	r18, Y+42	; 0x2a
     7ca:	23 27       	eor	r18, r19
     7cc:	2a 87       	std	Y+10, r18	; 0x0a
     7ce:	2a 85       	ldd	r18, Y+10	; 0x0a
     7d0:	22 23       	and	r18, r18
     7d2:	4c f4       	brge	.+18     	; 0x7e6 <__LOCK_REGION_LENGTH__+0x3e6>
     7d4:	2a 85       	ldd	r18, Y+10	; 0x0a
     7d6:	22 2f       	mov	r18, r18
     7d8:	30 e0       	ldi	r19, 0x00	; 0
     7da:	22 0f       	add	r18, r18
     7dc:	33 1f       	adc	r19, r19
     7de:	32 2f       	mov	r19, r18
     7e0:	2b e1       	ldi	r18, 0x1B	; 27
     7e2:	23 27       	eor	r18, r19
     7e4:	02 c0       	rjmp	.+4      	; 0x7ea <__LOCK_REGION_LENGTH__+0x3ea>
     7e6:	2a 85       	ldd	r18, Y+10	; 0x0a
     7e8:	22 0f       	add	r18, r18
     7ea:	24 27       	eor	r18, r20
     7ec:	fc 01       	movw	r30, r24
     7ee:	20 83       	st	Z, r18
     7f0:	c8 01       	movw	r24, r16
     7f2:	05 96       	adiw	r24, 0x05	; 5
     7f4:	2a a5       	ldd	r18, Y+42	; 0x2a
     7f6:	42 2f       	mov	r20, r18
     7f8:	4d 25       	eor	r20, r13
     7fa:	3a a5       	ldd	r19, Y+42	; 0x2a
     7fc:	2b a5       	ldd	r18, Y+43	; 0x2b
     7fe:	23 27       	eor	r18, r19
     800:	2b 87       	std	Y+11, r18	; 0x0b
     802:	2b 85       	ldd	r18, Y+11	; 0x0b
     804:	22 23       	and	r18, r18
     806:	4c f4       	brge	.+18     	; 0x81a <__LOCK_REGION_LENGTH__+0x41a>
     808:	2b 85       	ldd	r18, Y+11	; 0x0b
     80a:	22 2f       	mov	r18, r18
     80c:	30 e0       	ldi	r19, 0x00	; 0
     80e:	22 0f       	add	r18, r18
     810:	33 1f       	adc	r19, r19
     812:	32 2f       	mov	r19, r18
     814:	2b e1       	ldi	r18, 0x1B	; 27
     816:	23 27       	eor	r18, r19
     818:	02 c0       	rjmp	.+4      	; 0x81e <__LOCK_REGION_LENGTH__+0x41e>
     81a:	2b 85       	ldd	r18, Y+11	; 0x0b
     81c:	22 0f       	add	r18, r18
     81e:	24 27       	eor	r18, r20
     820:	fc 01       	movw	r30, r24
     822:	20 83       	st	Z, r18
     824:	c8 01       	movw	r24, r16
     826:	06 96       	adiw	r24, 0x06	; 6
     828:	2b a5       	ldd	r18, Y+43	; 0x2b
     82a:	42 2f       	mov	r20, r18
     82c:	4d 25       	eor	r20, r13
     82e:	3b a5       	ldd	r19, Y+43	; 0x2b
     830:	2c a5       	ldd	r18, Y+44	; 0x2c
     832:	23 27       	eor	r18, r19
     834:	2c 87       	std	Y+12, r18	; 0x0c
     836:	2c 85       	ldd	r18, Y+12	; 0x0c
     838:	22 23       	and	r18, r18
     83a:	4c f4       	brge	.+18     	; 0x84e <__LOCK_REGION_LENGTH__+0x44e>
     83c:	2c 85       	ldd	r18, Y+12	; 0x0c
     83e:	22 2f       	mov	r18, r18
     840:	30 e0       	ldi	r19, 0x00	; 0
     842:	22 0f       	add	r18, r18
     844:	33 1f       	adc	r19, r19
     846:	32 2f       	mov	r19, r18
     848:	2b e1       	ldi	r18, 0x1B	; 27
     84a:	23 27       	eor	r18, r19
     84c:	02 c0       	rjmp	.+4      	; 0x852 <__LOCK_REGION_LENGTH__+0x452>
     84e:	2c 85       	ldd	r18, Y+12	; 0x0c
     850:	22 0f       	add	r18, r18
     852:	24 27       	eor	r18, r20
     854:	fc 01       	movw	r30, r24
     856:	20 83       	st	Z, r18
     858:	c8 01       	movw	r24, r16
     85a:	07 96       	adiw	r24, 0x07	; 7
     85c:	2c a5       	ldd	r18, Y+44	; 0x2c
     85e:	42 2f       	mov	r20, r18
     860:	4d 25       	eor	r20, r13
     862:	3c a5       	ldd	r19, Y+44	; 0x2c
     864:	29 a5       	ldd	r18, Y+41	; 0x29
     866:	23 27       	eor	r18, r19
     868:	2d 87       	std	Y+13, r18	; 0x0d
     86a:	2d 85       	ldd	r18, Y+13	; 0x0d
     86c:	22 23       	and	r18, r18
     86e:	4c f4       	brge	.+18     	; 0x882 <__LOCK_REGION_LENGTH__+0x482>
     870:	2d 85       	ldd	r18, Y+13	; 0x0d
     872:	22 2f       	mov	r18, r18
     874:	30 e0       	ldi	r19, 0x00	; 0
     876:	22 0f       	add	r18, r18
     878:	33 1f       	adc	r19, r19
     87a:	32 2f       	mov	r19, r18
     87c:	2b e1       	ldi	r18, 0x1B	; 27
     87e:	23 27       	eor	r18, r19
     880:	02 c0       	rjmp	.+4      	; 0x886 <__LOCK_REGION_LENGTH__+0x486>
     882:	2d 85       	ldd	r18, Y+13	; 0x0d
     884:	22 0f       	add	r18, r18
     886:	24 27       	eor	r18, r20
     888:	fc 01       	movw	r30, r24
     88a:	20 83       	st	Z, r18
     88c:	99 a5       	ldd	r25, Y+41	; 0x29
     88e:	8b a5       	ldd	r24, Y+43	; 0x2b
     890:	89 27       	eor	r24, r25
     892:	8e 87       	std	Y+14, r24	; 0x0e
     894:	8e 85       	ldd	r24, Y+14	; 0x0e
     896:	88 23       	and	r24, r24
     898:	4c f4       	brge	.+18     	; 0x8ac <__LOCK_REGION_LENGTH__+0x4ac>
     89a:	8e 85       	ldd	r24, Y+14	; 0x0e
     89c:	88 2f       	mov	r24, r24
     89e:	90 e0       	ldi	r25, 0x00	; 0
     8a0:	88 0f       	add	r24, r24
     8a2:	99 1f       	adc	r25, r25
     8a4:	98 2f       	mov	r25, r24
     8a6:	8b e1       	ldi	r24, 0x1B	; 27
     8a8:	89 27       	eor	r24, r25
     8aa:	02 c0       	rjmp	.+4      	; 0x8b0 <__LOCK_REGION_LENGTH__+0x4b0>
     8ac:	8e 85       	ldd	r24, Y+14	; 0x0e
     8ae:	88 0f       	add	r24, r24
     8b0:	8f 87       	std	Y+15, r24	; 0x0f
     8b2:	8f 85       	ldd	r24, Y+15	; 0x0f
     8b4:	88 23       	and	r24, r24
     8b6:	4c f4       	brge	.+18     	; 0x8ca <__LOCK_REGION_LENGTH__+0x4ca>
     8b8:	8f 85       	ldd	r24, Y+15	; 0x0f
     8ba:	88 2f       	mov	r24, r24
     8bc:	90 e0       	ldi	r25, 0x00	; 0
     8be:	88 0f       	add	r24, r24
     8c0:	99 1f       	adc	r25, r25
     8c2:	98 2f       	mov	r25, r24
     8c4:	8b e1       	ldi	r24, 0x1B	; 27
     8c6:	89 27       	eor	r24, r25
     8c8:	02 c0       	rjmp	.+4      	; 0x8ce <__LOCK_REGION_LENGTH__+0x4ce>
     8ca:	8f 85       	ldd	r24, Y+15	; 0x0f
     8cc:	88 0f       	add	r24, r24
     8ce:	b8 2e       	mov	r11, r24
     8d0:	9a a5       	ldd	r25, Y+42	; 0x2a
     8d2:	8c a5       	ldd	r24, Y+44	; 0x2c
     8d4:	89 27       	eor	r24, r25
     8d6:	88 8b       	std	Y+16, r24	; 0x10
     8d8:	88 89       	ldd	r24, Y+16	; 0x10
     8da:	88 23       	and	r24, r24
     8dc:	4c f4       	brge	.+18     	; 0x8f0 <__LOCK_REGION_LENGTH__+0x4f0>
     8de:	88 89       	ldd	r24, Y+16	; 0x10
     8e0:	88 2f       	mov	r24, r24
     8e2:	90 e0       	ldi	r25, 0x00	; 0
     8e4:	88 0f       	add	r24, r24
     8e6:	99 1f       	adc	r25, r25
     8e8:	98 2f       	mov	r25, r24
     8ea:	8b e1       	ldi	r24, 0x1B	; 27
     8ec:	89 27       	eor	r24, r25
     8ee:	02 c0       	rjmp	.+4      	; 0x8f4 <__LOCK_REGION_LENGTH__+0x4f4>
     8f0:	88 89       	ldd	r24, Y+16	; 0x10
     8f2:	88 0f       	add	r24, r24
     8f4:	89 8b       	std	Y+17, r24	; 0x11
     8f6:	89 89       	ldd	r24, Y+17	; 0x11
     8f8:	88 23       	and	r24, r24
     8fa:	4c f4       	brge	.+18     	; 0x90e <__stack+0xf>
     8fc:	89 89       	ldd	r24, Y+17	; 0x11
     8fe:	88 2f       	mov	r24, r24
     900:	90 e0       	ldi	r25, 0x00	; 0
     902:	88 0f       	add	r24, r24
     904:	99 1f       	adc	r25, r25
     906:	98 2f       	mov	r25, r24
     908:	8b e1       	ldi	r24, 0x1B	; 27
     90a:	89 27       	eor	r24, r25
     90c:	02 c0       	rjmp	.+4      	; 0x912 <__stack+0x13>
     90e:	89 89       	ldd	r24, Y+17	; 0x11
     910:	88 0f       	add	r24, r24
     912:	c8 2e       	mov	r12, r24
     914:	8b 2d       	mov	r24, r11
     916:	8c 25       	eor	r24, r12
     918:	8a 8b       	std	Y+18, r24	; 0x12
     91a:	8a 89       	ldd	r24, Y+18	; 0x12
     91c:	88 23       	and	r24, r24
     91e:	4c f4       	brge	.+18     	; 0x932 <__stack+0x33>
     920:	8a 89       	ldd	r24, Y+18	; 0x12
     922:	88 2f       	mov	r24, r24
     924:	90 e0       	ldi	r25, 0x00	; 0
     926:	88 0f       	add	r24, r24
     928:	99 1f       	adc	r25, r25
     92a:	98 2f       	mov	r25, r24
     92c:	8b e1       	ldi	r24, 0x1B	; 27
     92e:	89 27       	eor	r24, r25
     930:	02 c0       	rjmp	.+4      	; 0x936 <__stack+0x37>
     932:	8a 89       	ldd	r24, Y+18	; 0x12
     934:	88 0f       	add	r24, r24
     936:	d8 2e       	mov	r13, r24
     938:	c8 01       	movw	r24, r16
     93a:	04 96       	adiw	r24, 0x04	; 4
     93c:	98 01       	movw	r18, r16
     93e:	2c 5f       	subi	r18, 0xFC	; 252
     940:	3f 4f       	sbci	r19, 0xFF	; 255
     942:	f9 01       	movw	r30, r18
     944:	30 81       	ld	r19, Z
     946:	2d 2d       	mov	r18, r13
     948:	2b 25       	eor	r18, r11
     94a:	23 27       	eor	r18, r19
     94c:	fc 01       	movw	r30, r24
     94e:	20 83       	st	Z, r18
     950:	c8 01       	movw	r24, r16
     952:	05 96       	adiw	r24, 0x05	; 5
     954:	98 01       	movw	r18, r16
     956:	2b 5f       	subi	r18, 0xFB	; 251
     958:	3f 4f       	sbci	r19, 0xFF	; 255
     95a:	f9 01       	movw	r30, r18
     95c:	30 81       	ld	r19, Z
     95e:	2d 2d       	mov	r18, r13
     960:	2c 25       	eor	r18, r12
     962:	23 27       	eor	r18, r19
     964:	fc 01       	movw	r30, r24
     966:	20 83       	st	Z, r18
     968:	c8 01       	movw	r24, r16
     96a:	06 96       	adiw	r24, 0x06	; 6
     96c:	98 01       	movw	r18, r16
     96e:	2a 5f       	subi	r18, 0xFA	; 250
     970:	3f 4f       	sbci	r19, 0xFF	; 255
     972:	f9 01       	movw	r30, r18
     974:	30 81       	ld	r19, Z
     976:	2d 2d       	mov	r18, r13
     978:	2b 25       	eor	r18, r11
     97a:	23 27       	eor	r18, r19
     97c:	fc 01       	movw	r30, r24
     97e:	20 83       	st	Z, r18
     980:	c8 01       	movw	r24, r16
     982:	07 96       	adiw	r24, 0x07	; 7
     984:	98 01       	movw	r18, r16
     986:	29 5f       	subi	r18, 0xF9	; 249
     988:	3f 4f       	sbci	r19, 0xFF	; 255
     98a:	f9 01       	movw	r30, r18
     98c:	30 81       	ld	r19, Z
     98e:	2d 2d       	mov	r18, r13
     990:	2c 25       	eor	r18, r12
     992:	23 27       	eor	r18, r19
     994:	fc 01       	movw	r30, r24
     996:	20 83       	st	Z, r18
     998:	9d a5       	ldd	r25, Y+45	; 0x2d
     99a:	8e a5       	ldd	r24, Y+46	; 0x2e
     99c:	98 27       	eor	r25, r24
     99e:	8f a5       	ldd	r24, Y+47	; 0x2f
     9a0:	98 27       	eor	r25, r24
     9a2:	88 a9       	ldd	r24, Y+48	; 0x30
     9a4:	d9 2e       	mov	r13, r25
     9a6:	d8 26       	eor	r13, r24
     9a8:	c8 01       	movw	r24, r16
     9aa:	08 96       	adiw	r24, 0x08	; 8
     9ac:	2d a5       	ldd	r18, Y+45	; 0x2d
     9ae:	42 2f       	mov	r20, r18
     9b0:	4d 25       	eor	r20, r13
     9b2:	3d a5       	ldd	r19, Y+45	; 0x2d
     9b4:	2e a5       	ldd	r18, Y+46	; 0x2e
     9b6:	23 27       	eor	r18, r19
     9b8:	2b 8b       	std	Y+19, r18	; 0x13
     9ba:	2b 89       	ldd	r18, Y+19	; 0x13
     9bc:	22 23       	and	r18, r18
     9be:	4c f4       	brge	.+18     	; 0x9d2 <__stack+0xd3>
     9c0:	2b 89       	ldd	r18, Y+19	; 0x13
     9c2:	22 2f       	mov	r18, r18
     9c4:	30 e0       	ldi	r19, 0x00	; 0
     9c6:	22 0f       	add	r18, r18
     9c8:	33 1f       	adc	r19, r19
     9ca:	32 2f       	mov	r19, r18
     9cc:	2b e1       	ldi	r18, 0x1B	; 27
     9ce:	23 27       	eor	r18, r19
     9d0:	02 c0       	rjmp	.+4      	; 0x9d6 <__stack+0xd7>
     9d2:	2b 89       	ldd	r18, Y+19	; 0x13
     9d4:	22 0f       	add	r18, r18
     9d6:	24 27       	eor	r18, r20
     9d8:	fc 01       	movw	r30, r24
     9da:	20 83       	st	Z, r18
     9dc:	c8 01       	movw	r24, r16
     9de:	09 96       	adiw	r24, 0x09	; 9
     9e0:	2e a5       	ldd	r18, Y+46	; 0x2e
     9e2:	42 2f       	mov	r20, r18
     9e4:	4d 25       	eor	r20, r13
     9e6:	3e a5       	ldd	r19, Y+46	; 0x2e
     9e8:	2f a5       	ldd	r18, Y+47	; 0x2f
     9ea:	23 27       	eor	r18, r19
     9ec:	2c 8b       	std	Y+20, r18	; 0x14
     9ee:	2c 89       	ldd	r18, Y+20	; 0x14
     9f0:	22 23       	and	r18, r18
     9f2:	4c f4       	brge	.+18     	; 0xa06 <__stack+0x107>
     9f4:	2c 89       	ldd	r18, Y+20	; 0x14
     9f6:	22 2f       	mov	r18, r18
     9f8:	30 e0       	ldi	r19, 0x00	; 0
     9fa:	22 0f       	add	r18, r18
     9fc:	33 1f       	adc	r19, r19
     9fe:	32 2f       	mov	r19, r18
     a00:	2b e1       	ldi	r18, 0x1B	; 27
     a02:	23 27       	eor	r18, r19
     a04:	02 c0       	rjmp	.+4      	; 0xa0a <__stack+0x10b>
     a06:	2c 89       	ldd	r18, Y+20	; 0x14
     a08:	22 0f       	add	r18, r18
     a0a:	24 27       	eor	r18, r20
     a0c:	fc 01       	movw	r30, r24
     a0e:	20 83       	st	Z, r18
     a10:	c8 01       	movw	r24, r16
     a12:	0a 96       	adiw	r24, 0x0a	; 10
     a14:	2f a5       	ldd	r18, Y+47	; 0x2f
     a16:	42 2f       	mov	r20, r18
     a18:	4d 25       	eor	r20, r13
     a1a:	3f a5       	ldd	r19, Y+47	; 0x2f
     a1c:	28 a9       	ldd	r18, Y+48	; 0x30
     a1e:	23 27       	eor	r18, r19
     a20:	2d 8b       	std	Y+21, r18	; 0x15
     a22:	2d 89       	ldd	r18, Y+21	; 0x15
     a24:	22 23       	and	r18, r18
     a26:	4c f4       	brge	.+18     	; 0xa3a <__stack+0x13b>
     a28:	2d 89       	ldd	r18, Y+21	; 0x15
     a2a:	22 2f       	mov	r18, r18
     a2c:	30 e0       	ldi	r19, 0x00	; 0
     a2e:	22 0f       	add	r18, r18
     a30:	33 1f       	adc	r19, r19
     a32:	32 2f       	mov	r19, r18
     a34:	2b e1       	ldi	r18, 0x1B	; 27
     a36:	23 27       	eor	r18, r19
     a38:	02 c0       	rjmp	.+4      	; 0xa3e <__stack+0x13f>
     a3a:	2d 89       	ldd	r18, Y+21	; 0x15
     a3c:	22 0f       	add	r18, r18
     a3e:	24 27       	eor	r18, r20
     a40:	fc 01       	movw	r30, r24
     a42:	20 83       	st	Z, r18
     a44:	c8 01       	movw	r24, r16
     a46:	0b 96       	adiw	r24, 0x0b	; 11
     a48:	28 a9       	ldd	r18, Y+48	; 0x30
     a4a:	42 2f       	mov	r20, r18
     a4c:	4d 25       	eor	r20, r13
     a4e:	38 a9       	ldd	r19, Y+48	; 0x30
     a50:	2d a5       	ldd	r18, Y+45	; 0x2d
     a52:	23 27       	eor	r18, r19
     a54:	2e 8b       	std	Y+22, r18	; 0x16
     a56:	2e 89       	ldd	r18, Y+22	; 0x16
     a58:	22 23       	and	r18, r18
     a5a:	4c f4       	brge	.+18     	; 0xa6e <__stack+0x16f>
     a5c:	2e 89       	ldd	r18, Y+22	; 0x16
     a5e:	22 2f       	mov	r18, r18
     a60:	30 e0       	ldi	r19, 0x00	; 0
     a62:	22 0f       	add	r18, r18
     a64:	33 1f       	adc	r19, r19
     a66:	32 2f       	mov	r19, r18
     a68:	2b e1       	ldi	r18, 0x1B	; 27
     a6a:	23 27       	eor	r18, r19
     a6c:	02 c0       	rjmp	.+4      	; 0xa72 <__stack+0x173>
     a6e:	2e 89       	ldd	r18, Y+22	; 0x16
     a70:	22 0f       	add	r18, r18
     a72:	24 27       	eor	r18, r20
     a74:	fc 01       	movw	r30, r24
     a76:	20 83       	st	Z, r18
     a78:	9d a5       	ldd	r25, Y+45	; 0x2d
     a7a:	8f a5       	ldd	r24, Y+47	; 0x2f
     a7c:	89 27       	eor	r24, r25
     a7e:	8f 8b       	std	Y+23, r24	; 0x17
     a80:	8f 89       	ldd	r24, Y+23	; 0x17
     a82:	88 23       	and	r24, r24
     a84:	4c f4       	brge	.+18     	; 0xa98 <__stack+0x199>
     a86:	8f 89       	ldd	r24, Y+23	; 0x17
     a88:	88 2f       	mov	r24, r24
     a8a:	90 e0       	ldi	r25, 0x00	; 0
     a8c:	88 0f       	add	r24, r24
     a8e:	99 1f       	adc	r25, r25
     a90:	98 2f       	mov	r25, r24
     a92:	8b e1       	ldi	r24, 0x1B	; 27
     a94:	89 27       	eor	r24, r25
     a96:	02 c0       	rjmp	.+4      	; 0xa9c <__stack+0x19d>
     a98:	8f 89       	ldd	r24, Y+23	; 0x17
     a9a:	88 0f       	add	r24, r24
     a9c:	88 8f       	std	Y+24, r24	; 0x18
     a9e:	88 8d       	ldd	r24, Y+24	; 0x18
     aa0:	88 23       	and	r24, r24
     aa2:	4c f4       	brge	.+18     	; 0xab6 <__stack+0x1b7>
     aa4:	88 8d       	ldd	r24, Y+24	; 0x18
     aa6:	88 2f       	mov	r24, r24
     aa8:	90 e0       	ldi	r25, 0x00	; 0
     aaa:	88 0f       	add	r24, r24
     aac:	99 1f       	adc	r25, r25
     aae:	98 2f       	mov	r25, r24
     ab0:	8b e1       	ldi	r24, 0x1B	; 27
     ab2:	89 27       	eor	r24, r25
     ab4:	02 c0       	rjmp	.+4      	; 0xaba <__stack+0x1bb>
     ab6:	88 8d       	ldd	r24, Y+24	; 0x18
     ab8:	88 0f       	add	r24, r24
     aba:	b8 2e       	mov	r11, r24
     abc:	9e a5       	ldd	r25, Y+46	; 0x2e
     abe:	88 a9       	ldd	r24, Y+48	; 0x30
     ac0:	89 27       	eor	r24, r25
     ac2:	89 8f       	std	Y+25, r24	; 0x19
     ac4:	89 8d       	ldd	r24, Y+25	; 0x19
     ac6:	88 23       	and	r24, r24
     ac8:	4c f4       	brge	.+18     	; 0xadc <__stack+0x1dd>
     aca:	89 8d       	ldd	r24, Y+25	; 0x19
     acc:	88 2f       	mov	r24, r24
     ace:	90 e0       	ldi	r25, 0x00	; 0
     ad0:	88 0f       	add	r24, r24
     ad2:	99 1f       	adc	r25, r25
     ad4:	98 2f       	mov	r25, r24
     ad6:	8b e1       	ldi	r24, 0x1B	; 27
     ad8:	89 27       	eor	r24, r25
     ada:	02 c0       	rjmp	.+4      	; 0xae0 <__stack+0x1e1>
     adc:	89 8d       	ldd	r24, Y+25	; 0x19
     ade:	88 0f       	add	r24, r24
     ae0:	8a 8f       	std	Y+26, r24	; 0x1a
     ae2:	8a 8d       	ldd	r24, Y+26	; 0x1a
     ae4:	88 23       	and	r24, r24
     ae6:	4c f4       	brge	.+18     	; 0xafa <__stack+0x1fb>
     ae8:	8a 8d       	ldd	r24, Y+26	; 0x1a
     aea:	88 2f       	mov	r24, r24
     aec:	90 e0       	ldi	r25, 0x00	; 0
     aee:	88 0f       	add	r24, r24
     af0:	99 1f       	adc	r25, r25
     af2:	98 2f       	mov	r25, r24
     af4:	8b e1       	ldi	r24, 0x1B	; 27
     af6:	89 27       	eor	r24, r25
     af8:	02 c0       	rjmp	.+4      	; 0xafe <__stack+0x1ff>
     afa:	8a 8d       	ldd	r24, Y+26	; 0x1a
     afc:	88 0f       	add	r24, r24
     afe:	c8 2e       	mov	r12, r24
     b00:	8b 2d       	mov	r24, r11
     b02:	8c 25       	eor	r24, r12
     b04:	8b 8f       	std	Y+27, r24	; 0x1b
     b06:	8b 8d       	ldd	r24, Y+27	; 0x1b
     b08:	88 23       	and	r24, r24
     b0a:	4c f4       	brge	.+18     	; 0xb1e <__stack+0x21f>
     b0c:	8b 8d       	ldd	r24, Y+27	; 0x1b
     b0e:	88 2f       	mov	r24, r24
     b10:	90 e0       	ldi	r25, 0x00	; 0
     b12:	88 0f       	add	r24, r24
     b14:	99 1f       	adc	r25, r25
     b16:	98 2f       	mov	r25, r24
     b18:	8b e1       	ldi	r24, 0x1B	; 27
     b1a:	89 27       	eor	r24, r25
     b1c:	02 c0       	rjmp	.+4      	; 0xb22 <__stack+0x223>
     b1e:	8b 8d       	ldd	r24, Y+27	; 0x1b
     b20:	88 0f       	add	r24, r24
     b22:	d8 2e       	mov	r13, r24
     b24:	c8 01       	movw	r24, r16
     b26:	08 96       	adiw	r24, 0x08	; 8
     b28:	98 01       	movw	r18, r16
     b2a:	28 5f       	subi	r18, 0xF8	; 248
     b2c:	3f 4f       	sbci	r19, 0xFF	; 255
     b2e:	f9 01       	movw	r30, r18
     b30:	30 81       	ld	r19, Z
     b32:	2d 2d       	mov	r18, r13
     b34:	2b 25       	eor	r18, r11
     b36:	23 27       	eor	r18, r19
     b38:	fc 01       	movw	r30, r24
     b3a:	20 83       	st	Z, r18
     b3c:	c8 01       	movw	r24, r16
     b3e:	09 96       	adiw	r24, 0x09	; 9
     b40:	98 01       	movw	r18, r16
     b42:	27 5f       	subi	r18, 0xF7	; 247
     b44:	3f 4f       	sbci	r19, 0xFF	; 255
     b46:	f9 01       	movw	r30, r18
     b48:	30 81       	ld	r19, Z
     b4a:	2d 2d       	mov	r18, r13
     b4c:	2c 25       	eor	r18, r12
     b4e:	23 27       	eor	r18, r19
     b50:	fc 01       	movw	r30, r24
     b52:	20 83       	st	Z, r18
     b54:	c8 01       	movw	r24, r16
     b56:	0a 96       	adiw	r24, 0x0a	; 10
     b58:	98 01       	movw	r18, r16
     b5a:	26 5f       	subi	r18, 0xF6	; 246
     b5c:	3f 4f       	sbci	r19, 0xFF	; 255
     b5e:	f9 01       	movw	r30, r18
     b60:	30 81       	ld	r19, Z
     b62:	2d 2d       	mov	r18, r13
     b64:	2b 25       	eor	r18, r11
     b66:	23 27       	eor	r18, r19
     b68:	fc 01       	movw	r30, r24
     b6a:	20 83       	st	Z, r18
     b6c:	c8 01       	movw	r24, r16
     b6e:	0b 96       	adiw	r24, 0x0b	; 11
     b70:	98 01       	movw	r18, r16
     b72:	25 5f       	subi	r18, 0xF5	; 245
     b74:	3f 4f       	sbci	r19, 0xFF	; 255
     b76:	f9 01       	movw	r30, r18
     b78:	30 81       	ld	r19, Z
     b7a:	2d 2d       	mov	r18, r13
     b7c:	2c 25       	eor	r18, r12
     b7e:	23 27       	eor	r18, r19
     b80:	fc 01       	movw	r30, r24
     b82:	20 83       	st	Z, r18
     b84:	99 a9       	ldd	r25, Y+49	; 0x31
     b86:	8a a9       	ldd	r24, Y+50	; 0x32
     b88:	98 27       	eor	r25, r24
     b8a:	8b a9       	ldd	r24, Y+51	; 0x33
     b8c:	98 27       	eor	r25, r24
     b8e:	8c a9       	ldd	r24, Y+52	; 0x34
     b90:	d9 2e       	mov	r13, r25
     b92:	d8 26       	eor	r13, r24
     b94:	c8 01       	movw	r24, r16
     b96:	0c 96       	adiw	r24, 0x0c	; 12
     b98:	29 a9       	ldd	r18, Y+49	; 0x31
     b9a:	42 2f       	mov	r20, r18
     b9c:	4d 25       	eor	r20, r13
     b9e:	39 a9       	ldd	r19, Y+49	; 0x31
     ba0:	2a a9       	ldd	r18, Y+50	; 0x32
     ba2:	23 27       	eor	r18, r19
     ba4:	2c 8f       	std	Y+28, r18	; 0x1c
     ba6:	2c 8d       	ldd	r18, Y+28	; 0x1c
     ba8:	22 23       	and	r18, r18
     baa:	4c f4       	brge	.+18     	; 0xbbe <__stack+0x2bf>
     bac:	2c 8d       	ldd	r18, Y+28	; 0x1c
     bae:	22 2f       	mov	r18, r18
     bb0:	30 e0       	ldi	r19, 0x00	; 0
     bb2:	22 0f       	add	r18, r18
     bb4:	33 1f       	adc	r19, r19
     bb6:	32 2f       	mov	r19, r18
     bb8:	2b e1       	ldi	r18, 0x1B	; 27
     bba:	23 27       	eor	r18, r19
     bbc:	02 c0       	rjmp	.+4      	; 0xbc2 <__stack+0x2c3>
     bbe:	2c 8d       	ldd	r18, Y+28	; 0x1c
     bc0:	22 0f       	add	r18, r18
     bc2:	24 27       	eor	r18, r20
     bc4:	fc 01       	movw	r30, r24
     bc6:	20 83       	st	Z, r18
     bc8:	c8 01       	movw	r24, r16
     bca:	0d 96       	adiw	r24, 0x0d	; 13
     bcc:	2a a9       	ldd	r18, Y+50	; 0x32
     bce:	42 2f       	mov	r20, r18
     bd0:	4d 25       	eor	r20, r13
     bd2:	3a a9       	ldd	r19, Y+50	; 0x32
     bd4:	2b a9       	ldd	r18, Y+51	; 0x33
     bd6:	23 27       	eor	r18, r19
     bd8:	2d 8f       	std	Y+29, r18	; 0x1d
     bda:	2d 8d       	ldd	r18, Y+29	; 0x1d
     bdc:	22 23       	and	r18, r18
     bde:	4c f4       	brge	.+18     	; 0xbf2 <__stack+0x2f3>
     be0:	2d 8d       	ldd	r18, Y+29	; 0x1d
     be2:	22 2f       	mov	r18, r18
     be4:	30 e0       	ldi	r19, 0x00	; 0
     be6:	22 0f       	add	r18, r18
     be8:	33 1f       	adc	r19, r19
     bea:	32 2f       	mov	r19, r18
     bec:	2b e1       	ldi	r18, 0x1B	; 27
     bee:	23 27       	eor	r18, r19
     bf0:	02 c0       	rjmp	.+4      	; 0xbf6 <__stack+0x2f7>
     bf2:	2d 8d       	ldd	r18, Y+29	; 0x1d
     bf4:	22 0f       	add	r18, r18
     bf6:	24 27       	eor	r18, r20
     bf8:	fc 01       	movw	r30, r24
     bfa:	20 83       	st	Z, r18
     bfc:	c8 01       	movw	r24, r16
     bfe:	0e 96       	adiw	r24, 0x0e	; 14
     c00:	2b a9       	ldd	r18, Y+51	; 0x33
     c02:	42 2f       	mov	r20, r18
     c04:	4d 25       	eor	r20, r13
     c06:	3b a9       	ldd	r19, Y+51	; 0x33
     c08:	2c a9       	ldd	r18, Y+52	; 0x34
     c0a:	23 27       	eor	r18, r19
     c0c:	2e 8f       	std	Y+30, r18	; 0x1e
     c0e:	2e 8d       	ldd	r18, Y+30	; 0x1e
     c10:	22 23       	and	r18, r18
     c12:	4c f4       	brge	.+18     	; 0xc26 <__stack+0x327>
     c14:	2e 8d       	ldd	r18, Y+30	; 0x1e
     c16:	22 2f       	mov	r18, r18
     c18:	30 e0       	ldi	r19, 0x00	; 0
     c1a:	22 0f       	add	r18, r18
     c1c:	33 1f       	adc	r19, r19
     c1e:	32 2f       	mov	r19, r18
     c20:	2b e1       	ldi	r18, 0x1B	; 27
     c22:	23 27       	eor	r18, r19
     c24:	02 c0       	rjmp	.+4      	; 0xc2a <__stack+0x32b>
     c26:	2e 8d       	ldd	r18, Y+30	; 0x1e
     c28:	22 0f       	add	r18, r18
     c2a:	24 27       	eor	r18, r20
     c2c:	fc 01       	movw	r30, r24
     c2e:	20 83       	st	Z, r18
     c30:	c8 01       	movw	r24, r16
     c32:	0f 96       	adiw	r24, 0x0f	; 15
     c34:	2c a9       	ldd	r18, Y+52	; 0x34
     c36:	42 2f       	mov	r20, r18
     c38:	4d 25       	eor	r20, r13
     c3a:	3c a9       	ldd	r19, Y+52	; 0x34
     c3c:	29 a9       	ldd	r18, Y+49	; 0x31
     c3e:	23 27       	eor	r18, r19
     c40:	2f 8f       	std	Y+31, r18	; 0x1f
     c42:	2f 8d       	ldd	r18, Y+31	; 0x1f
     c44:	22 23       	and	r18, r18
     c46:	4c f4       	brge	.+18     	; 0xc5a <__stack+0x35b>
     c48:	2f 8d       	ldd	r18, Y+31	; 0x1f
     c4a:	22 2f       	mov	r18, r18
     c4c:	30 e0       	ldi	r19, 0x00	; 0
     c4e:	22 0f       	add	r18, r18
     c50:	33 1f       	adc	r19, r19
     c52:	32 2f       	mov	r19, r18
     c54:	2b e1       	ldi	r18, 0x1B	; 27
     c56:	23 27       	eor	r18, r19
     c58:	02 c0       	rjmp	.+4      	; 0xc5e <__stack+0x35f>
     c5a:	2f 8d       	ldd	r18, Y+31	; 0x1f
     c5c:	22 0f       	add	r18, r18
     c5e:	24 27       	eor	r18, r20
     c60:	fc 01       	movw	r30, r24
     c62:	20 83       	st	Z, r18
     c64:	99 a9       	ldd	r25, Y+49	; 0x31
     c66:	8b a9       	ldd	r24, Y+51	; 0x33
     c68:	89 27       	eor	r24, r25
     c6a:	88 a3       	std	Y+32, r24	; 0x20
     c6c:	88 a1       	ldd	r24, Y+32	; 0x20
     c6e:	88 23       	and	r24, r24
     c70:	4c f4       	brge	.+18     	; 0xc84 <__stack+0x385>
     c72:	88 a1       	ldd	r24, Y+32	; 0x20
     c74:	88 2f       	mov	r24, r24
     c76:	90 e0       	ldi	r25, 0x00	; 0
     c78:	88 0f       	add	r24, r24
     c7a:	99 1f       	adc	r25, r25
     c7c:	98 2f       	mov	r25, r24
     c7e:	8b e1       	ldi	r24, 0x1B	; 27
     c80:	89 27       	eor	r24, r25
     c82:	02 c0       	rjmp	.+4      	; 0xc88 <__stack+0x389>
     c84:	88 a1       	ldd	r24, Y+32	; 0x20
     c86:	88 0f       	add	r24, r24
     c88:	89 a3       	std	Y+33, r24	; 0x21
     c8a:	89 a1       	ldd	r24, Y+33	; 0x21
     c8c:	88 23       	and	r24, r24
     c8e:	4c f4       	brge	.+18     	; 0xca2 <__stack+0x3a3>
     c90:	89 a1       	ldd	r24, Y+33	; 0x21
     c92:	88 2f       	mov	r24, r24
     c94:	90 e0       	ldi	r25, 0x00	; 0
     c96:	88 0f       	add	r24, r24
     c98:	99 1f       	adc	r25, r25
     c9a:	98 2f       	mov	r25, r24
     c9c:	8b e1       	ldi	r24, 0x1B	; 27
     c9e:	89 27       	eor	r24, r25
     ca0:	02 c0       	rjmp	.+4      	; 0xca6 <__stack+0x3a7>
     ca2:	89 a1       	ldd	r24, Y+33	; 0x21
     ca4:	88 0f       	add	r24, r24
     ca6:	b8 2e       	mov	r11, r24
     ca8:	9a a9       	ldd	r25, Y+50	; 0x32
     caa:	8c a9       	ldd	r24, Y+52	; 0x34
     cac:	89 27       	eor	r24, r25
     cae:	8a a3       	std	Y+34, r24	; 0x22
     cb0:	8a a1       	ldd	r24, Y+34	; 0x22
     cb2:	88 23       	and	r24, r24
     cb4:	4c f4       	brge	.+18     	; 0xcc8 <__stack+0x3c9>
     cb6:	8a a1       	ldd	r24, Y+34	; 0x22
     cb8:	88 2f       	mov	r24, r24
     cba:	90 e0       	ldi	r25, 0x00	; 0
     cbc:	88 0f       	add	r24, r24
     cbe:	99 1f       	adc	r25, r25
     cc0:	98 2f       	mov	r25, r24
     cc2:	8b e1       	ldi	r24, 0x1B	; 27
     cc4:	89 27       	eor	r24, r25
     cc6:	02 c0       	rjmp	.+4      	; 0xccc <__stack+0x3cd>
     cc8:	8a a1       	ldd	r24, Y+34	; 0x22
     cca:	88 0f       	add	r24, r24
     ccc:	8b a3       	std	Y+35, r24	; 0x23
     cce:	8b a1       	ldd	r24, Y+35	; 0x23
     cd0:	88 23       	and	r24, r24
     cd2:	4c f4       	brge	.+18     	; 0xce6 <__stack+0x3e7>
     cd4:	8b a1       	ldd	r24, Y+35	; 0x23
     cd6:	88 2f       	mov	r24, r24
     cd8:	90 e0       	ldi	r25, 0x00	; 0
     cda:	88 0f       	add	r24, r24
     cdc:	99 1f       	adc	r25, r25
     cde:	98 2f       	mov	r25, r24
     ce0:	8b e1       	ldi	r24, 0x1B	; 27
     ce2:	89 27       	eor	r24, r25
     ce4:	02 c0       	rjmp	.+4      	; 0xcea <__stack+0x3eb>
     ce6:	8b a1       	ldd	r24, Y+35	; 0x23
     ce8:	88 0f       	add	r24, r24
     cea:	c8 2e       	mov	r12, r24
     cec:	8b 2d       	mov	r24, r11
     cee:	8c 25       	eor	r24, r12
     cf0:	8c a3       	std	Y+36, r24	; 0x24
     cf2:	8c a1       	ldd	r24, Y+36	; 0x24
     cf4:	88 23       	and	r24, r24
     cf6:	4c f4       	brge	.+18     	; 0xd0a <__stack+0x40b>
     cf8:	8c a1       	ldd	r24, Y+36	; 0x24
     cfa:	88 2f       	mov	r24, r24
     cfc:	90 e0       	ldi	r25, 0x00	; 0
     cfe:	88 0f       	add	r24, r24
     d00:	99 1f       	adc	r25, r25
     d02:	98 2f       	mov	r25, r24
     d04:	8b e1       	ldi	r24, 0x1B	; 27
     d06:	89 27       	eor	r24, r25
     d08:	02 c0       	rjmp	.+4      	; 0xd0e <__stack+0x40f>
     d0a:	8c a1       	ldd	r24, Y+36	; 0x24
     d0c:	88 0f       	add	r24, r24
     d0e:	d8 2e       	mov	r13, r24
     d10:	c8 01       	movw	r24, r16
     d12:	0c 96       	adiw	r24, 0x0c	; 12
     d14:	98 01       	movw	r18, r16
     d16:	24 5f       	subi	r18, 0xF4	; 244
     d18:	3f 4f       	sbci	r19, 0xFF	; 255
     d1a:	f9 01       	movw	r30, r18
     d1c:	30 81       	ld	r19, Z
     d1e:	2d 2d       	mov	r18, r13
     d20:	2b 25       	eor	r18, r11
     d22:	23 27       	eor	r18, r19
     d24:	fc 01       	movw	r30, r24
     d26:	20 83       	st	Z, r18
     d28:	c8 01       	movw	r24, r16
     d2a:	0d 96       	adiw	r24, 0x0d	; 13
     d2c:	98 01       	movw	r18, r16
     d2e:	23 5f       	subi	r18, 0xF3	; 243
     d30:	3f 4f       	sbci	r19, 0xFF	; 255
     d32:	f9 01       	movw	r30, r18
     d34:	30 81       	ld	r19, Z
     d36:	2d 2d       	mov	r18, r13
     d38:	2c 25       	eor	r18, r12
     d3a:	23 27       	eor	r18, r19
     d3c:	fc 01       	movw	r30, r24
     d3e:	20 83       	st	Z, r18
     d40:	c8 01       	movw	r24, r16
     d42:	0e 96       	adiw	r24, 0x0e	; 14
     d44:	98 01       	movw	r18, r16
     d46:	22 5f       	subi	r18, 0xF2	; 242
     d48:	3f 4f       	sbci	r19, 0xFF	; 255
     d4a:	f9 01       	movw	r30, r18
     d4c:	30 81       	ld	r19, Z
     d4e:	2d 2d       	mov	r18, r13
     d50:	2b 25       	eor	r18, r11
     d52:	23 27       	eor	r18, r19
     d54:	fc 01       	movw	r30, r24
     d56:	20 83       	st	Z, r18
     d58:	c8 01       	movw	r24, r16
     d5a:	0f 96       	adiw	r24, 0x0f	; 15
     d5c:	98 01       	movw	r18, r16
     d5e:	21 5f       	subi	r18, 0xF1	; 241
     d60:	3f 4f       	sbci	r19, 0xFF	; 255
     d62:	f9 01       	movw	r30, r18
     d64:	30 81       	ld	r19, Z
     d66:	2d 2d       	mov	r18, r13
     d68:	2c 25       	eor	r18, r12
     d6a:	23 27       	eor	r18, r19
     d6c:	fc 01       	movw	r30, r24
     d6e:	20 83       	st	Z, r18
     d70:	c8 01       	movw	r24, r16
     d72:	90 d9       	rcall	.-3296   	; 0x94 <inv_shift_rows>
     d74:	f8 01       	movw	r30, r16
     d76:	80 81       	ld	r24, Z
     d78:	88 2f       	mov	r24, r24
     d7a:	90 e0       	ldi	r25, 0x00	; 0
     d7c:	80 50       	subi	r24, 0x00	; 0
     d7e:	9f 4f       	sbci	r25, 0xFF	; 255
     d80:	fc 01       	movw	r30, r24
     d82:	80 81       	ld	r24, Z
     d84:	f8 01       	movw	r30, r16
     d86:	80 83       	st	Z, r24
     d88:	c8 01       	movw	r24, r16
     d8a:	01 96       	adiw	r24, 0x01	; 1
     d8c:	98 01       	movw	r18, r16
     d8e:	2f 5f       	subi	r18, 0xFF	; 255
     d90:	3f 4f       	sbci	r19, 0xFF	; 255
     d92:	f9 01       	movw	r30, r18
     d94:	20 81       	ld	r18, Z
     d96:	22 2f       	mov	r18, r18
     d98:	30 e0       	ldi	r19, 0x00	; 0
     d9a:	20 50       	subi	r18, 0x00	; 0
     d9c:	3f 4f       	sbci	r19, 0xFF	; 255
     d9e:	f9 01       	movw	r30, r18
     da0:	20 81       	ld	r18, Z
     da2:	fc 01       	movw	r30, r24
     da4:	20 83       	st	Z, r18
     da6:	c8 01       	movw	r24, r16
     da8:	02 96       	adiw	r24, 0x02	; 2
     daa:	98 01       	movw	r18, r16
     dac:	2e 5f       	subi	r18, 0xFE	; 254
     dae:	3f 4f       	sbci	r19, 0xFF	; 255
     db0:	f9 01       	movw	r30, r18
     db2:	20 81       	ld	r18, Z
     db4:	22 2f       	mov	r18, r18
     db6:	30 e0       	ldi	r19, 0x00	; 0
     db8:	20 50       	subi	r18, 0x00	; 0
     dba:	3f 4f       	sbci	r19, 0xFF	; 255
     dbc:	f9 01       	movw	r30, r18
     dbe:	20 81       	ld	r18, Z
     dc0:	fc 01       	movw	r30, r24
     dc2:	20 83       	st	Z, r18
     dc4:	c8 01       	movw	r24, r16
     dc6:	03 96       	adiw	r24, 0x03	; 3
     dc8:	98 01       	movw	r18, r16
     dca:	2d 5f       	subi	r18, 0xFD	; 253
     dcc:	3f 4f       	sbci	r19, 0xFF	; 255
     dce:	f9 01       	movw	r30, r18
     dd0:	20 81       	ld	r18, Z
     dd2:	22 2f       	mov	r18, r18
     dd4:	30 e0       	ldi	r19, 0x00	; 0
     dd6:	20 50       	subi	r18, 0x00	; 0
     dd8:	3f 4f       	sbci	r19, 0xFF	; 255
     dda:	f9 01       	movw	r30, r18
     ddc:	20 81       	ld	r18, Z
     dde:	fc 01       	movw	r30, r24
     de0:	20 83       	st	Z, r18
     de2:	c8 01       	movw	r24, r16
     de4:	04 96       	adiw	r24, 0x04	; 4
     de6:	98 01       	movw	r18, r16
     de8:	2c 5f       	subi	r18, 0xFC	; 252
     dea:	3f 4f       	sbci	r19, 0xFF	; 255
     dec:	f9 01       	movw	r30, r18
     dee:	20 81       	ld	r18, Z
     df0:	22 2f       	mov	r18, r18
     df2:	30 e0       	ldi	r19, 0x00	; 0
     df4:	20 50       	subi	r18, 0x00	; 0
     df6:	3f 4f       	sbci	r19, 0xFF	; 255
     df8:	f9 01       	movw	r30, r18
     dfa:	20 81       	ld	r18, Z
     dfc:	fc 01       	movw	r30, r24
     dfe:	20 83       	st	Z, r18
     e00:	c8 01       	movw	r24, r16
     e02:	05 96       	adiw	r24, 0x05	; 5
     e04:	98 01       	movw	r18, r16
     e06:	2b 5f       	subi	r18, 0xFB	; 251
     e08:	3f 4f       	sbci	r19, 0xFF	; 255
     e0a:	f9 01       	movw	r30, r18
     e0c:	20 81       	ld	r18, Z
     e0e:	22 2f       	mov	r18, r18
     e10:	30 e0       	ldi	r19, 0x00	; 0
     e12:	20 50       	subi	r18, 0x00	; 0
     e14:	3f 4f       	sbci	r19, 0xFF	; 255
     e16:	f9 01       	movw	r30, r18
     e18:	20 81       	ld	r18, Z
     e1a:	fc 01       	movw	r30, r24
     e1c:	20 83       	st	Z, r18
     e1e:	c8 01       	movw	r24, r16
     e20:	06 96       	adiw	r24, 0x06	; 6
     e22:	98 01       	movw	r18, r16
     e24:	2a 5f       	subi	r18, 0xFA	; 250
     e26:	3f 4f       	sbci	r19, 0xFF	; 255
     e28:	f9 01       	movw	r30, r18
     e2a:	20 81       	ld	r18, Z
     e2c:	22 2f       	mov	r18, r18
     e2e:	30 e0       	ldi	r19, 0x00	; 0
     e30:	20 50       	subi	r18, 0x00	; 0
     e32:	3f 4f       	sbci	r19, 0xFF	; 255
     e34:	f9 01       	movw	r30, r18
     e36:	20 81       	ld	r18, Z
     e38:	fc 01       	movw	r30, r24
     e3a:	20 83       	st	Z, r18
     e3c:	c8 01       	movw	r24, r16
     e3e:	07 96       	adiw	r24, 0x07	; 7
     e40:	98 01       	movw	r18, r16
     e42:	29 5f       	subi	r18, 0xF9	; 249
     e44:	3f 4f       	sbci	r19, 0xFF	; 255
     e46:	f9 01       	movw	r30, r18
     e48:	20 81       	ld	r18, Z
     e4a:	22 2f       	mov	r18, r18
     e4c:	30 e0       	ldi	r19, 0x00	; 0
     e4e:	20 50       	subi	r18, 0x00	; 0
     e50:	3f 4f       	sbci	r19, 0xFF	; 255
     e52:	f9 01       	movw	r30, r18
     e54:	20 81       	ld	r18, Z
     e56:	fc 01       	movw	r30, r24
     e58:	20 83       	st	Z, r18
     e5a:	c8 01       	movw	r24, r16
     e5c:	08 96       	adiw	r24, 0x08	; 8
     e5e:	98 01       	movw	r18, r16
     e60:	28 5f       	subi	r18, 0xF8	; 248
     e62:	3f 4f       	sbci	r19, 0xFF	; 255
     e64:	f9 01       	movw	r30, r18
     e66:	20 81       	ld	r18, Z
     e68:	22 2f       	mov	r18, r18
     e6a:	30 e0       	ldi	r19, 0x00	; 0
     e6c:	20 50       	subi	r18, 0x00	; 0
     e6e:	3f 4f       	sbci	r19, 0xFF	; 255
     e70:	f9 01       	movw	r30, r18
     e72:	20 81       	ld	r18, Z
     e74:	fc 01       	movw	r30, r24
     e76:	20 83       	st	Z, r18
     e78:	c8 01       	movw	r24, r16
     e7a:	09 96       	adiw	r24, 0x09	; 9
     e7c:	98 01       	movw	r18, r16
     e7e:	27 5f       	subi	r18, 0xF7	; 247
     e80:	3f 4f       	sbci	r19, 0xFF	; 255
     e82:	f9 01       	movw	r30, r18
     e84:	20 81       	ld	r18, Z
     e86:	22 2f       	mov	r18, r18
     e88:	30 e0       	ldi	r19, 0x00	; 0
     e8a:	20 50       	subi	r18, 0x00	; 0
     e8c:	3f 4f       	sbci	r19, 0xFF	; 255
     e8e:	f9 01       	movw	r30, r18
     e90:	20 81       	ld	r18, Z
     e92:	fc 01       	movw	r30, r24
     e94:	20 83       	st	Z, r18
     e96:	c8 01       	movw	r24, r16
     e98:	0a 96       	adiw	r24, 0x0a	; 10
     e9a:	98 01       	movw	r18, r16
     e9c:	26 5f       	subi	r18, 0xF6	; 246
     e9e:	3f 4f       	sbci	r19, 0xFF	; 255
     ea0:	f9 01       	movw	r30, r18
     ea2:	20 81       	ld	r18, Z
     ea4:	22 2f       	mov	r18, r18
     ea6:	30 e0       	ldi	r19, 0x00	; 0
     ea8:	20 50       	subi	r18, 0x00	; 0
     eaa:	3f 4f       	sbci	r19, 0xFF	; 255
     eac:	f9 01       	movw	r30, r18
     eae:	20 81       	ld	r18, Z
     eb0:	fc 01       	movw	r30, r24
     eb2:	20 83       	st	Z, r18
     eb4:	c8 01       	movw	r24, r16
     eb6:	0b 96       	adiw	r24, 0x0b	; 11
     eb8:	98 01       	movw	r18, r16
     eba:	25 5f       	subi	r18, 0xF5	; 245
     ebc:	3f 4f       	sbci	r19, 0xFF	; 255
     ebe:	f9 01       	movw	r30, r18
     ec0:	20 81       	ld	r18, Z
     ec2:	22 2f       	mov	r18, r18
     ec4:	30 e0       	ldi	r19, 0x00	; 0
     ec6:	20 50       	subi	r18, 0x00	; 0
     ec8:	3f 4f       	sbci	r19, 0xFF	; 255
     eca:	f9 01       	movw	r30, r18
     ecc:	20 81       	ld	r18, Z
     ece:	fc 01       	movw	r30, r24
     ed0:	20 83       	st	Z, r18
     ed2:	c8 01       	movw	r24, r16
     ed4:	0c 96       	adiw	r24, 0x0c	; 12
     ed6:	98 01       	movw	r18, r16
     ed8:	24 5f       	subi	r18, 0xF4	; 244
     eda:	3f 4f       	sbci	r19, 0xFF	; 255
     edc:	f9 01       	movw	r30, r18
     ede:	20 81       	ld	r18, Z
     ee0:	22 2f       	mov	r18, r18
     ee2:	30 e0       	ldi	r19, 0x00	; 0
     ee4:	20 50       	subi	r18, 0x00	; 0
     ee6:	3f 4f       	sbci	r19, 0xFF	; 255
     ee8:	f9 01       	movw	r30, r18
     eea:	20 81       	ld	r18, Z
     eec:	fc 01       	movw	r30, r24
     eee:	20 83       	st	Z, r18
     ef0:	c8 01       	movw	r24, r16
     ef2:	0d 96       	adiw	r24, 0x0d	; 13
     ef4:	98 01       	movw	r18, r16
     ef6:	23 5f       	subi	r18, 0xF3	; 243
     ef8:	3f 4f       	sbci	r19, 0xFF	; 255
     efa:	f9 01       	movw	r30, r18
     efc:	20 81       	ld	r18, Z
     efe:	22 2f       	mov	r18, r18
     f00:	30 e0       	ldi	r19, 0x00	; 0
     f02:	20 50       	subi	r18, 0x00	; 0
     f04:	3f 4f       	sbci	r19, 0xFF	; 255
     f06:	f9 01       	movw	r30, r18
     f08:	20 81       	ld	r18, Z
     f0a:	fc 01       	movw	r30, r24
     f0c:	20 83       	st	Z, r18
     f0e:	c8 01       	movw	r24, r16
     f10:	0e 96       	adiw	r24, 0x0e	; 14
     f12:	98 01       	movw	r18, r16
     f14:	22 5f       	subi	r18, 0xF2	; 242
     f16:	3f 4f       	sbci	r19, 0xFF	; 255
     f18:	f9 01       	movw	r30, r18
     f1a:	20 81       	ld	r18, Z
     f1c:	22 2f       	mov	r18, r18
     f1e:	30 e0       	ldi	r19, 0x00	; 0
     f20:	20 50       	subi	r18, 0x00	; 0
     f22:	3f 4f       	sbci	r19, 0xFF	; 255
     f24:	f9 01       	movw	r30, r18
     f26:	20 81       	ld	r18, Z
     f28:	fc 01       	movw	r30, r24
     f2a:	20 83       	st	Z, r18
     f2c:	c8 01       	movw	r24, r16
     f2e:	0f 96       	adiw	r24, 0x0f	; 15
     f30:	98 01       	movw	r18, r16
     f32:	21 5f       	subi	r18, 0xF1	; 241
     f34:	3f 4f       	sbci	r19, 0xFF	; 255
     f36:	f9 01       	movw	r30, r18
     f38:	20 81       	ld	r18, Z
     f3a:	22 2f       	mov	r18, r18
     f3c:	30 e0       	ldi	r19, 0x00	; 0
     f3e:	20 50       	subi	r18, 0x00	; 0
     f40:	3f 4f       	sbci	r19, 0xFF	; 255
     f42:	f9 01       	movw	r30, r18
     f44:	20 81       	ld	r18, Z
     f46:	fc 01       	movw	r30, r24
     f48:	20 83       	st	Z, r18
     f4a:	f0 e1       	ldi	r31, 0x10	; 16
     f4c:	ef 1a       	sub	r14, r31
     f4e:	f1 08       	sbc	r15, r1
     f50:	a3 94       	inc	r10
     f52:	29 e0       	ldi	r18, 0x09	; 9
     f54:	2a 15       	cp	r18, r10
     f56:	08 f0       	brcs	.+2      	; 0xf5a <__stack+0x65b>
     f58:	9e ca       	rjmp	.-2756   	; 0x496 <__LOCK_REGION_LENGTH__+0x96>
     f5a:	f8 01       	movw	r30, r16
     f5c:	90 81       	ld	r25, Z
     f5e:	f7 01       	movw	r30, r14
     f60:	80 81       	ld	r24, Z
     f62:	89 27       	eor	r24, r25
     f64:	f8 01       	movw	r30, r16
     f66:	80 83       	st	Z, r24
     f68:	c8 01       	movw	r24, r16
     f6a:	01 96       	adiw	r24, 0x01	; 1
     f6c:	98 01       	movw	r18, r16
     f6e:	2f 5f       	subi	r18, 0xFF	; 255
     f70:	3f 4f       	sbci	r19, 0xFF	; 255
     f72:	f9 01       	movw	r30, r18
     f74:	40 81       	ld	r20, Z
     f76:	97 01       	movw	r18, r14
     f78:	2f 5f       	subi	r18, 0xFF	; 255
     f7a:	3f 4f       	sbci	r19, 0xFF	; 255
     f7c:	f9 01       	movw	r30, r18
     f7e:	20 81       	ld	r18, Z
     f80:	24 27       	eor	r18, r20
     f82:	fc 01       	movw	r30, r24
     f84:	20 83       	st	Z, r18
     f86:	c8 01       	movw	r24, r16
     f88:	02 96       	adiw	r24, 0x02	; 2
     f8a:	98 01       	movw	r18, r16
     f8c:	2e 5f       	subi	r18, 0xFE	; 254
     f8e:	3f 4f       	sbci	r19, 0xFF	; 255
     f90:	f9 01       	movw	r30, r18
     f92:	40 81       	ld	r20, Z
     f94:	97 01       	movw	r18, r14
     f96:	2e 5f       	subi	r18, 0xFE	; 254
     f98:	3f 4f       	sbci	r19, 0xFF	; 255
     f9a:	f9 01       	movw	r30, r18
     f9c:	20 81       	ld	r18, Z
     f9e:	24 27       	eor	r18, r20
     fa0:	fc 01       	movw	r30, r24
     fa2:	20 83       	st	Z, r18
     fa4:	c8 01       	movw	r24, r16
     fa6:	03 96       	adiw	r24, 0x03	; 3
     fa8:	98 01       	movw	r18, r16
     faa:	2d 5f       	subi	r18, 0xFD	; 253
     fac:	3f 4f       	sbci	r19, 0xFF	; 255
     fae:	f9 01       	movw	r30, r18
     fb0:	40 81       	ld	r20, Z
     fb2:	97 01       	movw	r18, r14
     fb4:	2d 5f       	subi	r18, 0xFD	; 253
     fb6:	3f 4f       	sbci	r19, 0xFF	; 255
     fb8:	f9 01       	movw	r30, r18
     fba:	20 81       	ld	r18, Z
     fbc:	24 27       	eor	r18, r20
     fbe:	fc 01       	movw	r30, r24
     fc0:	20 83       	st	Z, r18
     fc2:	c8 01       	movw	r24, r16
     fc4:	04 96       	adiw	r24, 0x04	; 4
     fc6:	98 01       	movw	r18, r16
     fc8:	2c 5f       	subi	r18, 0xFC	; 252
     fca:	3f 4f       	sbci	r19, 0xFF	; 255
     fcc:	f9 01       	movw	r30, r18
     fce:	40 81       	ld	r20, Z
     fd0:	97 01       	movw	r18, r14
     fd2:	2c 5f       	subi	r18, 0xFC	; 252
     fd4:	3f 4f       	sbci	r19, 0xFF	; 255
     fd6:	f9 01       	movw	r30, r18
     fd8:	20 81       	ld	r18, Z
     fda:	24 27       	eor	r18, r20
     fdc:	fc 01       	movw	r30, r24
     fde:	20 83       	st	Z, r18
     fe0:	c8 01       	movw	r24, r16
     fe2:	05 96       	adiw	r24, 0x05	; 5
     fe4:	98 01       	movw	r18, r16
     fe6:	2b 5f       	subi	r18, 0xFB	; 251
     fe8:	3f 4f       	sbci	r19, 0xFF	; 255
     fea:	f9 01       	movw	r30, r18
     fec:	40 81       	ld	r20, Z
     fee:	97 01       	movw	r18, r14
     ff0:	2b 5f       	subi	r18, 0xFB	; 251
     ff2:	3f 4f       	sbci	r19, 0xFF	; 255
     ff4:	f9 01       	movw	r30, r18
     ff6:	20 81       	ld	r18, Z
     ff8:	24 27       	eor	r18, r20
     ffa:	fc 01       	movw	r30, r24
     ffc:	20 83       	st	Z, r18
     ffe:	c8 01       	movw	r24, r16
    1000:	06 96       	adiw	r24, 0x06	; 6
    1002:	98 01       	movw	r18, r16
    1004:	2a 5f       	subi	r18, 0xFA	; 250
    1006:	3f 4f       	sbci	r19, 0xFF	; 255
    1008:	f9 01       	movw	r30, r18
    100a:	40 81       	ld	r20, Z
    100c:	97 01       	movw	r18, r14
    100e:	2a 5f       	subi	r18, 0xFA	; 250
    1010:	3f 4f       	sbci	r19, 0xFF	; 255
    1012:	f9 01       	movw	r30, r18
    1014:	20 81       	ld	r18, Z
    1016:	24 27       	eor	r18, r20
    1018:	fc 01       	movw	r30, r24
    101a:	20 83       	st	Z, r18
    101c:	c8 01       	movw	r24, r16
    101e:	07 96       	adiw	r24, 0x07	; 7
    1020:	98 01       	movw	r18, r16
    1022:	29 5f       	subi	r18, 0xF9	; 249
    1024:	3f 4f       	sbci	r19, 0xFF	; 255
    1026:	f9 01       	movw	r30, r18
    1028:	40 81       	ld	r20, Z
    102a:	97 01       	movw	r18, r14
    102c:	29 5f       	subi	r18, 0xF9	; 249
    102e:	3f 4f       	sbci	r19, 0xFF	; 255
    1030:	f9 01       	movw	r30, r18
    1032:	20 81       	ld	r18, Z
    1034:	24 27       	eor	r18, r20
    1036:	fc 01       	movw	r30, r24
    1038:	20 83       	st	Z, r18
    103a:	c8 01       	movw	r24, r16
    103c:	08 96       	adiw	r24, 0x08	; 8
    103e:	98 01       	movw	r18, r16
    1040:	28 5f       	subi	r18, 0xF8	; 248
    1042:	3f 4f       	sbci	r19, 0xFF	; 255
    1044:	f9 01       	movw	r30, r18
    1046:	40 81       	ld	r20, Z
    1048:	97 01       	movw	r18, r14
    104a:	28 5f       	subi	r18, 0xF8	; 248
    104c:	3f 4f       	sbci	r19, 0xFF	; 255
    104e:	f9 01       	movw	r30, r18
    1050:	20 81       	ld	r18, Z
    1052:	24 27       	eor	r18, r20
    1054:	fc 01       	movw	r30, r24
    1056:	20 83       	st	Z, r18
    1058:	c8 01       	movw	r24, r16
    105a:	09 96       	adiw	r24, 0x09	; 9
    105c:	98 01       	movw	r18, r16
    105e:	27 5f       	subi	r18, 0xF7	; 247
    1060:	3f 4f       	sbci	r19, 0xFF	; 255
    1062:	f9 01       	movw	r30, r18
    1064:	40 81       	ld	r20, Z
    1066:	97 01       	movw	r18, r14
    1068:	27 5f       	subi	r18, 0xF7	; 247
    106a:	3f 4f       	sbci	r19, 0xFF	; 255
    106c:	f9 01       	movw	r30, r18
    106e:	20 81       	ld	r18, Z
    1070:	24 27       	eor	r18, r20
    1072:	fc 01       	movw	r30, r24
    1074:	20 83       	st	Z, r18
    1076:	c8 01       	movw	r24, r16
    1078:	0a 96       	adiw	r24, 0x0a	; 10
    107a:	98 01       	movw	r18, r16
    107c:	26 5f       	subi	r18, 0xF6	; 246
    107e:	3f 4f       	sbci	r19, 0xFF	; 255
    1080:	f9 01       	movw	r30, r18
    1082:	40 81       	ld	r20, Z
    1084:	97 01       	movw	r18, r14
    1086:	26 5f       	subi	r18, 0xF6	; 246
    1088:	3f 4f       	sbci	r19, 0xFF	; 255
    108a:	f9 01       	movw	r30, r18
    108c:	20 81       	ld	r18, Z
    108e:	24 27       	eor	r18, r20
    1090:	fc 01       	movw	r30, r24
    1092:	20 83       	st	Z, r18
    1094:	c8 01       	movw	r24, r16
    1096:	0b 96       	adiw	r24, 0x0b	; 11
    1098:	98 01       	movw	r18, r16
    109a:	25 5f       	subi	r18, 0xF5	; 245
    109c:	3f 4f       	sbci	r19, 0xFF	; 255
    109e:	f9 01       	movw	r30, r18
    10a0:	40 81       	ld	r20, Z
    10a2:	97 01       	movw	r18, r14
    10a4:	25 5f       	subi	r18, 0xF5	; 245
    10a6:	3f 4f       	sbci	r19, 0xFF	; 255
    10a8:	f9 01       	movw	r30, r18
    10aa:	20 81       	ld	r18, Z
    10ac:	24 27       	eor	r18, r20
    10ae:	fc 01       	movw	r30, r24
    10b0:	20 83       	st	Z, r18
    10b2:	c8 01       	movw	r24, r16
    10b4:	0c 96       	adiw	r24, 0x0c	; 12
    10b6:	98 01       	movw	r18, r16
    10b8:	24 5f       	subi	r18, 0xF4	; 244
    10ba:	3f 4f       	sbci	r19, 0xFF	; 255
    10bc:	f9 01       	movw	r30, r18
    10be:	40 81       	ld	r20, Z
    10c0:	97 01       	movw	r18, r14
    10c2:	24 5f       	subi	r18, 0xF4	; 244
    10c4:	3f 4f       	sbci	r19, 0xFF	; 255
    10c6:	f9 01       	movw	r30, r18
    10c8:	20 81       	ld	r18, Z
    10ca:	24 27       	eor	r18, r20
    10cc:	fc 01       	movw	r30, r24
    10ce:	20 83       	st	Z, r18
    10d0:	c8 01       	movw	r24, r16
    10d2:	0d 96       	adiw	r24, 0x0d	; 13
    10d4:	98 01       	movw	r18, r16
    10d6:	23 5f       	subi	r18, 0xF3	; 243
    10d8:	3f 4f       	sbci	r19, 0xFF	; 255
    10da:	f9 01       	movw	r30, r18
    10dc:	40 81       	ld	r20, Z
    10de:	97 01       	movw	r18, r14
    10e0:	23 5f       	subi	r18, 0xF3	; 243
    10e2:	3f 4f       	sbci	r19, 0xFF	; 255
    10e4:	f9 01       	movw	r30, r18
    10e6:	20 81       	ld	r18, Z
    10e8:	24 27       	eor	r18, r20
    10ea:	fc 01       	movw	r30, r24
    10ec:	20 83       	st	Z, r18
    10ee:	c8 01       	movw	r24, r16
    10f0:	0e 96       	adiw	r24, 0x0e	; 14
    10f2:	98 01       	movw	r18, r16
    10f4:	22 5f       	subi	r18, 0xF2	; 242
    10f6:	3f 4f       	sbci	r19, 0xFF	; 255
    10f8:	f9 01       	movw	r30, r18
    10fa:	40 81       	ld	r20, Z
    10fc:	97 01       	movw	r18, r14
    10fe:	22 5f       	subi	r18, 0xF2	; 242
    1100:	3f 4f       	sbci	r19, 0xFF	; 255
    1102:	f9 01       	movw	r30, r18
    1104:	20 81       	ld	r18, Z
    1106:	24 27       	eor	r18, r20
    1108:	fc 01       	movw	r30, r24
    110a:	20 83       	st	Z, r18
    110c:	c8 01       	movw	r24, r16
    110e:	0f 96       	adiw	r24, 0x0f	; 15
    1110:	98 01       	movw	r18, r16
    1112:	21 5f       	subi	r18, 0xF1	; 241
    1114:	3f 4f       	sbci	r19, 0xFF	; 255
    1116:	f9 01       	movw	r30, r18
    1118:	40 81       	ld	r20, Z
    111a:	97 01       	movw	r18, r14
    111c:	21 5f       	subi	r18, 0xF1	; 241
    111e:	3f 4f       	sbci	r19, 0xFF	; 255
    1120:	f9 01       	movw	r30, r18
    1122:	20 81       	ld	r18, Z
    1124:	24 27       	eor	r18, r20
    1126:	fc 01       	movw	r30, r24
    1128:	20 83       	st	Z, r18
    112a:	00 00       	nop
    112c:	e4 96       	adiw	r28, 0x34	; 52
    112e:	0f b6       	in	r0, 0x3f	; 63
    1130:	f8 94       	cli
    1132:	de bf       	out	0x3e, r29	; 62
    1134:	0f be       	out	0x3f, r0	; 63
    1136:	cd bf       	out	0x3d, r28	; 61
    1138:	df 91       	pop	r29
    113a:	cf 91       	pop	r28
    113c:	1f 91       	pop	r17
    113e:	0f 91       	pop	r16
    1140:	ff 90       	pop	r15
    1142:	ef 90       	pop	r14
    1144:	df 90       	pop	r13
    1146:	cf 90       	pop	r12
    1148:	bf 90       	pop	r11
    114a:	af 90       	pop	r10
    114c:	08 95       	ret

0000114e <shift_rows>:
    114e:	1f 93       	push	r17
    1150:	cf 93       	push	r28
    1152:	df 93       	push	r29
    1154:	cd b7       	in	r28, 0x3d	; 61
    1156:	de b7       	in	r29, 0x3e	; 62
    1158:	fc 01       	movw	r30, r24
    115a:	11 81       	ldd	r17, Z+1	; 0x01
    115c:	9c 01       	movw	r18, r24
    115e:	2f 5f       	subi	r18, 0xFF	; 255
    1160:	3f 4f       	sbci	r19, 0xFF	; 255
    1162:	fc 01       	movw	r30, r24
    1164:	45 81       	ldd	r20, Z+5	; 0x05
    1166:	f9 01       	movw	r30, r18
    1168:	40 83       	st	Z, r20
    116a:	9c 01       	movw	r18, r24
    116c:	2b 5f       	subi	r18, 0xFB	; 251
    116e:	3f 4f       	sbci	r19, 0xFF	; 255
    1170:	fc 01       	movw	r30, r24
    1172:	41 85       	ldd	r20, Z+9	; 0x09
    1174:	f9 01       	movw	r30, r18
    1176:	40 83       	st	Z, r20
    1178:	9c 01       	movw	r18, r24
    117a:	27 5f       	subi	r18, 0xF7	; 247
    117c:	3f 4f       	sbci	r19, 0xFF	; 255
    117e:	fc 01       	movw	r30, r24
    1180:	45 85       	ldd	r20, Z+13	; 0x0d
    1182:	f9 01       	movw	r30, r18
    1184:	40 83       	st	Z, r20
    1186:	9c 01       	movw	r18, r24
    1188:	23 5f       	subi	r18, 0xF3	; 243
    118a:	3f 4f       	sbci	r19, 0xFF	; 255
    118c:	f9 01       	movw	r30, r18
    118e:	10 83       	st	Z, r17
    1190:	fc 01       	movw	r30, r24
    1192:	12 81       	ldd	r17, Z+2	; 0x02
    1194:	9c 01       	movw	r18, r24
    1196:	2e 5f       	subi	r18, 0xFE	; 254
    1198:	3f 4f       	sbci	r19, 0xFF	; 255
    119a:	fc 01       	movw	r30, r24
    119c:	42 85       	ldd	r20, Z+10	; 0x0a
    119e:	f9 01       	movw	r30, r18
    11a0:	40 83       	st	Z, r20
    11a2:	9c 01       	movw	r18, r24
    11a4:	26 5f       	subi	r18, 0xF6	; 246
    11a6:	3f 4f       	sbci	r19, 0xFF	; 255
    11a8:	f9 01       	movw	r30, r18
    11aa:	10 83       	st	Z, r17
    11ac:	fc 01       	movw	r30, r24
    11ae:	16 81       	ldd	r17, Z+6	; 0x06
    11b0:	9c 01       	movw	r18, r24
    11b2:	2a 5f       	subi	r18, 0xFA	; 250
    11b4:	3f 4f       	sbci	r19, 0xFF	; 255
    11b6:	fc 01       	movw	r30, r24
    11b8:	46 85       	ldd	r20, Z+14	; 0x0e
    11ba:	f9 01       	movw	r30, r18
    11bc:	40 83       	st	Z, r20
    11be:	9c 01       	movw	r18, r24
    11c0:	22 5f       	subi	r18, 0xF2	; 242
    11c2:	3f 4f       	sbci	r19, 0xFF	; 255
    11c4:	f9 01       	movw	r30, r18
    11c6:	10 83       	st	Z, r17
    11c8:	fc 01       	movw	r30, r24
    11ca:	17 85       	ldd	r17, Z+15	; 0x0f
    11cc:	9c 01       	movw	r18, r24
    11ce:	21 5f       	subi	r18, 0xF1	; 241
    11d0:	3f 4f       	sbci	r19, 0xFF	; 255
    11d2:	fc 01       	movw	r30, r24
    11d4:	43 85       	ldd	r20, Z+11	; 0x0b
    11d6:	f9 01       	movw	r30, r18
    11d8:	40 83       	st	Z, r20
    11da:	9c 01       	movw	r18, r24
    11dc:	25 5f       	subi	r18, 0xF5	; 245
    11de:	3f 4f       	sbci	r19, 0xFF	; 255
    11e0:	fc 01       	movw	r30, r24
    11e2:	47 81       	ldd	r20, Z+7	; 0x07
    11e4:	f9 01       	movw	r30, r18
    11e6:	40 83       	st	Z, r20
    11e8:	9c 01       	movw	r18, r24
    11ea:	29 5f       	subi	r18, 0xF9	; 249
    11ec:	3f 4f       	sbci	r19, 0xFF	; 255
    11ee:	fc 01       	movw	r30, r24
    11f0:	43 81       	ldd	r20, Z+3	; 0x03
    11f2:	f9 01       	movw	r30, r18
    11f4:	40 83       	st	Z, r20
    11f6:	03 96       	adiw	r24, 0x03	; 3
    11f8:	fc 01       	movw	r30, r24
    11fa:	10 83       	st	Z, r17
    11fc:	00 00       	nop
    11fe:	df 91       	pop	r29
    1200:	cf 91       	pop	r28
    1202:	1f 91       	pop	r17
    1204:	08 95       	ret

00001206 <aes_encrypt_128>:
    1206:	df 92       	push	r13
    1208:	ef 92       	push	r14
    120a:	ff 92       	push	r15
    120c:	0f 93       	push	r16
    120e:	1f 93       	push	r17
    1210:	cf 93       	push	r28
    1212:	df 93       	push	r29
    1214:	cd b7       	in	r28, 0x3d	; 61
    1216:	de b7       	in	r29, 0x3e	; 62
    1218:	a1 97       	sbiw	r28, 0x21	; 33
    121a:	0f b6       	in	r0, 0x3f	; 63
    121c:	f8 94       	cli
    121e:	de bf       	out	0x3e, r29	; 62
    1220:	0f be       	out	0x3f, r0	; 63
    1222:	cd bf       	out	0x3d, r28	; 61
    1224:	7c 01       	movw	r14, r24
    1226:	cb 01       	movw	r24, r22
    1228:	8a 01       	movw	r16, r20
    122a:	d1 2c       	mov	r13, r1
    122c:	2d 2d       	mov	r18, r13
    122e:	30 e0       	ldi	r19, 0x00	; 0
    1230:	a8 01       	movw	r20, r16
    1232:	42 0f       	add	r20, r18
    1234:	53 1f       	adc	r21, r19
    1236:	2d 2d       	mov	r18, r13
    1238:	30 e0       	ldi	r19, 0x00	; 0
    123a:	28 0f       	add	r18, r24
    123c:	39 1f       	adc	r19, r25
    123e:	f9 01       	movw	r30, r18
    1240:	60 81       	ld	r22, Z
    1242:	97 01       	movw	r18, r14
    1244:	79 01       	movw	r14, r18
    1246:	ff ef       	ldi	r31, 0xFF	; 255
    1248:	ef 1a       	sub	r14, r31
    124a:	ff 0a       	sbc	r15, r31
    124c:	f9 01       	movw	r30, r18
    124e:	20 81       	ld	r18, Z
    1250:	26 27       	eor	r18, r22
    1252:	fa 01       	movw	r30, r20
    1254:	20 83       	st	Z, r18
    1256:	2d 2d       	mov	r18, r13
    1258:	dd 24       	eor	r13, r13
    125a:	d3 94       	inc	r13
    125c:	d2 0e       	add	r13, r18
    125e:	2d 2d       	mov	r18, r13
    1260:	30 e0       	ldi	r19, 0x00	; 0
    1262:	a8 01       	movw	r20, r16
    1264:	42 0f       	add	r20, r18
    1266:	53 1f       	adc	r21, r19
    1268:	2d 2d       	mov	r18, r13
    126a:	30 e0       	ldi	r19, 0x00	; 0
    126c:	28 0f       	add	r18, r24
    126e:	39 1f       	adc	r19, r25
    1270:	f9 01       	movw	r30, r18
    1272:	60 81       	ld	r22, Z
    1274:	97 01       	movw	r18, r14
    1276:	79 01       	movw	r14, r18
    1278:	ff ef       	ldi	r31, 0xFF	; 255
    127a:	ef 1a       	sub	r14, r31
    127c:	ff 0a       	sbc	r15, r31
    127e:	f9 01       	movw	r30, r18
    1280:	20 81       	ld	r18, Z
    1282:	26 27       	eor	r18, r22
    1284:	fa 01       	movw	r30, r20
    1286:	20 83       	st	Z, r18
    1288:	2d 2d       	mov	r18, r13
    128a:	dd 24       	eor	r13, r13
    128c:	d3 94       	inc	r13
    128e:	d2 0e       	add	r13, r18
    1290:	2d 2d       	mov	r18, r13
    1292:	30 e0       	ldi	r19, 0x00	; 0
    1294:	a8 01       	movw	r20, r16
    1296:	42 0f       	add	r20, r18
    1298:	53 1f       	adc	r21, r19
    129a:	2d 2d       	mov	r18, r13
    129c:	30 e0       	ldi	r19, 0x00	; 0
    129e:	28 0f       	add	r18, r24
    12a0:	39 1f       	adc	r19, r25
    12a2:	f9 01       	movw	r30, r18
    12a4:	60 81       	ld	r22, Z
    12a6:	97 01       	movw	r18, r14
    12a8:	79 01       	movw	r14, r18
    12aa:	ff ef       	ldi	r31, 0xFF	; 255
    12ac:	ef 1a       	sub	r14, r31
    12ae:	ff 0a       	sbc	r15, r31
    12b0:	f9 01       	movw	r30, r18
    12b2:	20 81       	ld	r18, Z
    12b4:	26 27       	eor	r18, r22
    12b6:	fa 01       	movw	r30, r20
    12b8:	20 83       	st	Z, r18
    12ba:	2d 2d       	mov	r18, r13
    12bc:	dd 24       	eor	r13, r13
    12be:	d3 94       	inc	r13
    12c0:	d2 0e       	add	r13, r18
    12c2:	2d 2d       	mov	r18, r13
    12c4:	30 e0       	ldi	r19, 0x00	; 0
    12c6:	a8 01       	movw	r20, r16
    12c8:	42 0f       	add	r20, r18
    12ca:	53 1f       	adc	r21, r19
    12cc:	2d 2d       	mov	r18, r13
    12ce:	30 e0       	ldi	r19, 0x00	; 0
    12d0:	28 0f       	add	r18, r24
    12d2:	39 1f       	adc	r19, r25
    12d4:	f9 01       	movw	r30, r18
    12d6:	60 81       	ld	r22, Z
    12d8:	97 01       	movw	r18, r14
    12da:	79 01       	movw	r14, r18
    12dc:	ff ef       	ldi	r31, 0xFF	; 255
    12de:	ef 1a       	sub	r14, r31
    12e0:	ff 0a       	sbc	r15, r31
    12e2:	f9 01       	movw	r30, r18
    12e4:	20 81       	ld	r18, Z
    12e6:	26 27       	eor	r18, r22
    12e8:	fa 01       	movw	r30, r20
    12ea:	20 83       	st	Z, r18
    12ec:	2d 2d       	mov	r18, r13
    12ee:	dd 24       	eor	r13, r13
    12f0:	d3 94       	inc	r13
    12f2:	d2 0e       	add	r13, r18
    12f4:	2d 2d       	mov	r18, r13
    12f6:	30 e0       	ldi	r19, 0x00	; 0
    12f8:	a8 01       	movw	r20, r16
    12fa:	42 0f       	add	r20, r18
    12fc:	53 1f       	adc	r21, r19
    12fe:	2d 2d       	mov	r18, r13
    1300:	30 e0       	ldi	r19, 0x00	; 0
    1302:	28 0f       	add	r18, r24
    1304:	39 1f       	adc	r19, r25
    1306:	f9 01       	movw	r30, r18
    1308:	60 81       	ld	r22, Z
    130a:	97 01       	movw	r18, r14
    130c:	79 01       	movw	r14, r18
    130e:	ff ef       	ldi	r31, 0xFF	; 255
    1310:	ef 1a       	sub	r14, r31
    1312:	ff 0a       	sbc	r15, r31
    1314:	f9 01       	movw	r30, r18
    1316:	20 81       	ld	r18, Z
    1318:	26 27       	eor	r18, r22
    131a:	fa 01       	movw	r30, r20
    131c:	20 83       	st	Z, r18
    131e:	2d 2d       	mov	r18, r13
    1320:	dd 24       	eor	r13, r13
    1322:	d3 94       	inc	r13
    1324:	d2 0e       	add	r13, r18
    1326:	2d 2d       	mov	r18, r13
    1328:	30 e0       	ldi	r19, 0x00	; 0
    132a:	a8 01       	movw	r20, r16
    132c:	42 0f       	add	r20, r18
    132e:	53 1f       	adc	r21, r19
    1330:	2d 2d       	mov	r18, r13
    1332:	30 e0       	ldi	r19, 0x00	; 0
    1334:	28 0f       	add	r18, r24
    1336:	39 1f       	adc	r19, r25
    1338:	f9 01       	movw	r30, r18
    133a:	60 81       	ld	r22, Z
    133c:	97 01       	movw	r18, r14
    133e:	79 01       	movw	r14, r18
    1340:	ff ef       	ldi	r31, 0xFF	; 255
    1342:	ef 1a       	sub	r14, r31
    1344:	ff 0a       	sbc	r15, r31
    1346:	f9 01       	movw	r30, r18
    1348:	20 81       	ld	r18, Z
    134a:	26 27       	eor	r18, r22
    134c:	fa 01       	movw	r30, r20
    134e:	20 83       	st	Z, r18
    1350:	2d 2d       	mov	r18, r13
    1352:	dd 24       	eor	r13, r13
    1354:	d3 94       	inc	r13
    1356:	d2 0e       	add	r13, r18
    1358:	2d 2d       	mov	r18, r13
    135a:	30 e0       	ldi	r19, 0x00	; 0
    135c:	a8 01       	movw	r20, r16
    135e:	42 0f       	add	r20, r18
    1360:	53 1f       	adc	r21, r19
    1362:	2d 2d       	mov	r18, r13
    1364:	30 e0       	ldi	r19, 0x00	; 0
    1366:	28 0f       	add	r18, r24
    1368:	39 1f       	adc	r19, r25
    136a:	f9 01       	movw	r30, r18
    136c:	60 81       	ld	r22, Z
    136e:	97 01       	movw	r18, r14
    1370:	79 01       	movw	r14, r18
    1372:	ff ef       	ldi	r31, 0xFF	; 255
    1374:	ef 1a       	sub	r14, r31
    1376:	ff 0a       	sbc	r15, r31
    1378:	f9 01       	movw	r30, r18
    137a:	20 81       	ld	r18, Z
    137c:	26 27       	eor	r18, r22
    137e:	fa 01       	movw	r30, r20
    1380:	20 83       	st	Z, r18
    1382:	2d 2d       	mov	r18, r13
    1384:	dd 24       	eor	r13, r13
    1386:	d3 94       	inc	r13
    1388:	d2 0e       	add	r13, r18
    138a:	2d 2d       	mov	r18, r13
    138c:	30 e0       	ldi	r19, 0x00	; 0
    138e:	a8 01       	movw	r20, r16
    1390:	42 0f       	add	r20, r18
    1392:	53 1f       	adc	r21, r19
    1394:	2d 2d       	mov	r18, r13
    1396:	30 e0       	ldi	r19, 0x00	; 0
    1398:	28 0f       	add	r18, r24
    139a:	39 1f       	adc	r19, r25
    139c:	f9 01       	movw	r30, r18
    139e:	60 81       	ld	r22, Z
    13a0:	97 01       	movw	r18, r14
    13a2:	79 01       	movw	r14, r18
    13a4:	ff ef       	ldi	r31, 0xFF	; 255
    13a6:	ef 1a       	sub	r14, r31
    13a8:	ff 0a       	sbc	r15, r31
    13aa:	f9 01       	movw	r30, r18
    13ac:	20 81       	ld	r18, Z
    13ae:	26 27       	eor	r18, r22
    13b0:	fa 01       	movw	r30, r20
    13b2:	20 83       	st	Z, r18
    13b4:	2d 2d       	mov	r18, r13
    13b6:	dd 24       	eor	r13, r13
    13b8:	d3 94       	inc	r13
    13ba:	d2 0e       	add	r13, r18
    13bc:	2d 2d       	mov	r18, r13
    13be:	30 e0       	ldi	r19, 0x00	; 0
    13c0:	a8 01       	movw	r20, r16
    13c2:	42 0f       	add	r20, r18
    13c4:	53 1f       	adc	r21, r19
    13c6:	2d 2d       	mov	r18, r13
    13c8:	30 e0       	ldi	r19, 0x00	; 0
    13ca:	28 0f       	add	r18, r24
    13cc:	39 1f       	adc	r19, r25
    13ce:	f9 01       	movw	r30, r18
    13d0:	60 81       	ld	r22, Z
    13d2:	97 01       	movw	r18, r14
    13d4:	79 01       	movw	r14, r18
    13d6:	ff ef       	ldi	r31, 0xFF	; 255
    13d8:	ef 1a       	sub	r14, r31
    13da:	ff 0a       	sbc	r15, r31
    13dc:	f9 01       	movw	r30, r18
    13de:	20 81       	ld	r18, Z
    13e0:	26 27       	eor	r18, r22
    13e2:	fa 01       	movw	r30, r20
    13e4:	20 83       	st	Z, r18
    13e6:	2d 2d       	mov	r18, r13
    13e8:	dd 24       	eor	r13, r13
    13ea:	d3 94       	inc	r13
    13ec:	d2 0e       	add	r13, r18
    13ee:	2d 2d       	mov	r18, r13
    13f0:	30 e0       	ldi	r19, 0x00	; 0
    13f2:	a8 01       	movw	r20, r16
    13f4:	42 0f       	add	r20, r18
    13f6:	53 1f       	adc	r21, r19
    13f8:	2d 2d       	mov	r18, r13
    13fa:	30 e0       	ldi	r19, 0x00	; 0
    13fc:	28 0f       	add	r18, r24
    13fe:	39 1f       	adc	r19, r25
    1400:	f9 01       	movw	r30, r18
    1402:	60 81       	ld	r22, Z
    1404:	97 01       	movw	r18, r14
    1406:	79 01       	movw	r14, r18
    1408:	ff ef       	ldi	r31, 0xFF	; 255
    140a:	ef 1a       	sub	r14, r31
    140c:	ff 0a       	sbc	r15, r31
    140e:	f9 01       	movw	r30, r18
    1410:	20 81       	ld	r18, Z
    1412:	26 27       	eor	r18, r22
    1414:	fa 01       	movw	r30, r20
    1416:	20 83       	st	Z, r18
    1418:	2d 2d       	mov	r18, r13
    141a:	dd 24       	eor	r13, r13
    141c:	d3 94       	inc	r13
    141e:	d2 0e       	add	r13, r18
    1420:	2d 2d       	mov	r18, r13
    1422:	30 e0       	ldi	r19, 0x00	; 0
    1424:	a8 01       	movw	r20, r16
    1426:	42 0f       	add	r20, r18
    1428:	53 1f       	adc	r21, r19
    142a:	2d 2d       	mov	r18, r13
    142c:	30 e0       	ldi	r19, 0x00	; 0
    142e:	28 0f       	add	r18, r24
    1430:	39 1f       	adc	r19, r25
    1432:	f9 01       	movw	r30, r18
    1434:	60 81       	ld	r22, Z
    1436:	97 01       	movw	r18, r14
    1438:	79 01       	movw	r14, r18
    143a:	ff ef       	ldi	r31, 0xFF	; 255
    143c:	ef 1a       	sub	r14, r31
    143e:	ff 0a       	sbc	r15, r31
    1440:	f9 01       	movw	r30, r18
    1442:	20 81       	ld	r18, Z
    1444:	26 27       	eor	r18, r22
    1446:	fa 01       	movw	r30, r20
    1448:	20 83       	st	Z, r18
    144a:	2d 2d       	mov	r18, r13
    144c:	dd 24       	eor	r13, r13
    144e:	d3 94       	inc	r13
    1450:	d2 0e       	add	r13, r18
    1452:	2d 2d       	mov	r18, r13
    1454:	30 e0       	ldi	r19, 0x00	; 0
    1456:	a8 01       	movw	r20, r16
    1458:	42 0f       	add	r20, r18
    145a:	53 1f       	adc	r21, r19
    145c:	2d 2d       	mov	r18, r13
    145e:	30 e0       	ldi	r19, 0x00	; 0
    1460:	28 0f       	add	r18, r24
    1462:	39 1f       	adc	r19, r25
    1464:	f9 01       	movw	r30, r18
    1466:	60 81       	ld	r22, Z
    1468:	97 01       	movw	r18, r14
    146a:	79 01       	movw	r14, r18
    146c:	ff ef       	ldi	r31, 0xFF	; 255
    146e:	ef 1a       	sub	r14, r31
    1470:	ff 0a       	sbc	r15, r31
    1472:	f9 01       	movw	r30, r18
    1474:	20 81       	ld	r18, Z
    1476:	26 27       	eor	r18, r22
    1478:	fa 01       	movw	r30, r20
    147a:	20 83       	st	Z, r18
    147c:	2d 2d       	mov	r18, r13
    147e:	dd 24       	eor	r13, r13
    1480:	d3 94       	inc	r13
    1482:	d2 0e       	add	r13, r18
    1484:	2d 2d       	mov	r18, r13
    1486:	30 e0       	ldi	r19, 0x00	; 0
    1488:	a8 01       	movw	r20, r16
    148a:	42 0f       	add	r20, r18
    148c:	53 1f       	adc	r21, r19
    148e:	2d 2d       	mov	r18, r13
    1490:	30 e0       	ldi	r19, 0x00	; 0
    1492:	28 0f       	add	r18, r24
    1494:	39 1f       	adc	r19, r25
    1496:	f9 01       	movw	r30, r18
    1498:	60 81       	ld	r22, Z
    149a:	97 01       	movw	r18, r14
    149c:	79 01       	movw	r14, r18
    149e:	ff ef       	ldi	r31, 0xFF	; 255
    14a0:	ef 1a       	sub	r14, r31
    14a2:	ff 0a       	sbc	r15, r31
    14a4:	f9 01       	movw	r30, r18
    14a6:	20 81       	ld	r18, Z
    14a8:	26 27       	eor	r18, r22
    14aa:	fa 01       	movw	r30, r20
    14ac:	20 83       	st	Z, r18
    14ae:	2d 2d       	mov	r18, r13
    14b0:	dd 24       	eor	r13, r13
    14b2:	d3 94       	inc	r13
    14b4:	d2 0e       	add	r13, r18
    14b6:	2d 2d       	mov	r18, r13
    14b8:	30 e0       	ldi	r19, 0x00	; 0
    14ba:	a8 01       	movw	r20, r16
    14bc:	42 0f       	add	r20, r18
    14be:	53 1f       	adc	r21, r19
    14c0:	2d 2d       	mov	r18, r13
    14c2:	30 e0       	ldi	r19, 0x00	; 0
    14c4:	28 0f       	add	r18, r24
    14c6:	39 1f       	adc	r19, r25
    14c8:	f9 01       	movw	r30, r18
    14ca:	60 81       	ld	r22, Z
    14cc:	97 01       	movw	r18, r14
    14ce:	79 01       	movw	r14, r18
    14d0:	ff ef       	ldi	r31, 0xFF	; 255
    14d2:	ef 1a       	sub	r14, r31
    14d4:	ff 0a       	sbc	r15, r31
    14d6:	f9 01       	movw	r30, r18
    14d8:	20 81       	ld	r18, Z
    14da:	26 27       	eor	r18, r22
    14dc:	fa 01       	movw	r30, r20
    14de:	20 83       	st	Z, r18
    14e0:	2d 2d       	mov	r18, r13
    14e2:	dd 24       	eor	r13, r13
    14e4:	d3 94       	inc	r13
    14e6:	d2 0e       	add	r13, r18
    14e8:	2d 2d       	mov	r18, r13
    14ea:	30 e0       	ldi	r19, 0x00	; 0
    14ec:	a8 01       	movw	r20, r16
    14ee:	42 0f       	add	r20, r18
    14f0:	53 1f       	adc	r21, r19
    14f2:	2d 2d       	mov	r18, r13
    14f4:	30 e0       	ldi	r19, 0x00	; 0
    14f6:	28 0f       	add	r18, r24
    14f8:	39 1f       	adc	r19, r25
    14fa:	f9 01       	movw	r30, r18
    14fc:	60 81       	ld	r22, Z
    14fe:	97 01       	movw	r18, r14
    1500:	79 01       	movw	r14, r18
    1502:	ff ef       	ldi	r31, 0xFF	; 255
    1504:	ef 1a       	sub	r14, r31
    1506:	ff 0a       	sbc	r15, r31
    1508:	f9 01       	movw	r30, r18
    150a:	20 81       	ld	r18, Z
    150c:	26 27       	eor	r18, r22
    150e:	fa 01       	movw	r30, r20
    1510:	20 83       	st	Z, r18
    1512:	2d 2d       	mov	r18, r13
    1514:	dd 24       	eor	r13, r13
    1516:	d3 94       	inc	r13
    1518:	d2 0e       	add	r13, r18
    151a:	2d 2d       	mov	r18, r13
    151c:	30 e0       	ldi	r19, 0x00	; 0
    151e:	20 0f       	add	r18, r16
    1520:	31 1f       	adc	r19, r17
    1522:	4d 2d       	mov	r20, r13
    1524:	50 e0       	ldi	r21, 0x00	; 0
    1526:	84 0f       	add	r24, r20
    1528:	95 1f       	adc	r25, r21
    152a:	fc 01       	movw	r30, r24
    152c:	40 81       	ld	r20, Z
    152e:	c7 01       	movw	r24, r14
    1530:	7c 01       	movw	r14, r24
    1532:	ff ef       	ldi	r31, 0xFF	; 255
    1534:	ef 1a       	sub	r14, r31
    1536:	ff 0a       	sbc	r15, r31
    1538:	fc 01       	movw	r30, r24
    153a:	80 81       	ld	r24, Z
    153c:	84 27       	eor	r24, r20
    153e:	f9 01       	movw	r30, r18
    1540:	80 83       	st	Z, r24
    1542:	dd 24       	eor	r13, r13
    1544:	d3 94       	inc	r13
    1546:	7b c3       	rjmp	.+1782   	; 0x1c3e <aes_encrypt_128+0xa38>
    1548:	f8 01       	movw	r30, r16
    154a:	80 81       	ld	r24, Z
    154c:	88 2f       	mov	r24, r24
    154e:	90 e0       	ldi	r25, 0x00	; 0
    1550:	80 50       	subi	r24, 0x00	; 0
    1552:	9e 4f       	sbci	r25, 0xFE	; 254
    1554:	fc 01       	movw	r30, r24
    1556:	80 81       	ld	r24, Z
    1558:	8a 8b       	std	Y+18, r24	; 0x12
    155a:	c8 01       	movw	r24, r16
    155c:	01 96       	adiw	r24, 0x01	; 1
    155e:	fc 01       	movw	r30, r24
    1560:	80 81       	ld	r24, Z
    1562:	88 2f       	mov	r24, r24
    1564:	90 e0       	ldi	r25, 0x00	; 0
    1566:	80 50       	subi	r24, 0x00	; 0
    1568:	9e 4f       	sbci	r25, 0xFE	; 254
    156a:	fc 01       	movw	r30, r24
    156c:	80 81       	ld	r24, Z
    156e:	8b 8b       	std	Y+19, r24	; 0x13
    1570:	c8 01       	movw	r24, r16
    1572:	02 96       	adiw	r24, 0x02	; 2
    1574:	fc 01       	movw	r30, r24
    1576:	80 81       	ld	r24, Z
    1578:	88 2f       	mov	r24, r24
    157a:	90 e0       	ldi	r25, 0x00	; 0
    157c:	80 50       	subi	r24, 0x00	; 0
    157e:	9e 4f       	sbci	r25, 0xFE	; 254
    1580:	fc 01       	movw	r30, r24
    1582:	80 81       	ld	r24, Z
    1584:	8c 8b       	std	Y+20, r24	; 0x14
    1586:	c8 01       	movw	r24, r16
    1588:	03 96       	adiw	r24, 0x03	; 3
    158a:	fc 01       	movw	r30, r24
    158c:	80 81       	ld	r24, Z
    158e:	88 2f       	mov	r24, r24
    1590:	90 e0       	ldi	r25, 0x00	; 0
    1592:	80 50       	subi	r24, 0x00	; 0
    1594:	9e 4f       	sbci	r25, 0xFE	; 254
    1596:	fc 01       	movw	r30, r24
    1598:	80 81       	ld	r24, Z
    159a:	8d 8b       	std	Y+21, r24	; 0x15
    159c:	c8 01       	movw	r24, r16
    159e:	04 96       	adiw	r24, 0x04	; 4
    15a0:	fc 01       	movw	r30, r24
    15a2:	80 81       	ld	r24, Z
    15a4:	88 2f       	mov	r24, r24
    15a6:	90 e0       	ldi	r25, 0x00	; 0
    15a8:	80 50       	subi	r24, 0x00	; 0
    15aa:	9e 4f       	sbci	r25, 0xFE	; 254
    15ac:	fc 01       	movw	r30, r24
    15ae:	80 81       	ld	r24, Z
    15b0:	8e 8b       	std	Y+22, r24	; 0x16
    15b2:	c8 01       	movw	r24, r16
    15b4:	05 96       	adiw	r24, 0x05	; 5
    15b6:	fc 01       	movw	r30, r24
    15b8:	80 81       	ld	r24, Z
    15ba:	88 2f       	mov	r24, r24
    15bc:	90 e0       	ldi	r25, 0x00	; 0
    15be:	80 50       	subi	r24, 0x00	; 0
    15c0:	9e 4f       	sbci	r25, 0xFE	; 254
    15c2:	fc 01       	movw	r30, r24
    15c4:	80 81       	ld	r24, Z
    15c6:	8f 8b       	std	Y+23, r24	; 0x17
    15c8:	c8 01       	movw	r24, r16
    15ca:	06 96       	adiw	r24, 0x06	; 6
    15cc:	fc 01       	movw	r30, r24
    15ce:	80 81       	ld	r24, Z
    15d0:	88 2f       	mov	r24, r24
    15d2:	90 e0       	ldi	r25, 0x00	; 0
    15d4:	80 50       	subi	r24, 0x00	; 0
    15d6:	9e 4f       	sbci	r25, 0xFE	; 254
    15d8:	fc 01       	movw	r30, r24
    15da:	80 81       	ld	r24, Z
    15dc:	88 8f       	std	Y+24, r24	; 0x18
    15de:	c8 01       	movw	r24, r16
    15e0:	07 96       	adiw	r24, 0x07	; 7
    15e2:	fc 01       	movw	r30, r24
    15e4:	80 81       	ld	r24, Z
    15e6:	88 2f       	mov	r24, r24
    15e8:	90 e0       	ldi	r25, 0x00	; 0
    15ea:	80 50       	subi	r24, 0x00	; 0
    15ec:	9e 4f       	sbci	r25, 0xFE	; 254
    15ee:	fc 01       	movw	r30, r24
    15f0:	80 81       	ld	r24, Z
    15f2:	89 8f       	std	Y+25, r24	; 0x19
    15f4:	c8 01       	movw	r24, r16
    15f6:	08 96       	adiw	r24, 0x08	; 8
    15f8:	fc 01       	movw	r30, r24
    15fa:	80 81       	ld	r24, Z
    15fc:	88 2f       	mov	r24, r24
    15fe:	90 e0       	ldi	r25, 0x00	; 0
    1600:	80 50       	subi	r24, 0x00	; 0
    1602:	9e 4f       	sbci	r25, 0xFE	; 254
    1604:	fc 01       	movw	r30, r24
    1606:	80 81       	ld	r24, Z
    1608:	8a 8f       	std	Y+26, r24	; 0x1a
    160a:	c8 01       	movw	r24, r16
    160c:	09 96       	adiw	r24, 0x09	; 9
    160e:	fc 01       	movw	r30, r24
    1610:	80 81       	ld	r24, Z
    1612:	88 2f       	mov	r24, r24
    1614:	90 e0       	ldi	r25, 0x00	; 0
    1616:	80 50       	subi	r24, 0x00	; 0
    1618:	9e 4f       	sbci	r25, 0xFE	; 254
    161a:	fc 01       	movw	r30, r24
    161c:	80 81       	ld	r24, Z
    161e:	8b 8f       	std	Y+27, r24	; 0x1b
    1620:	c8 01       	movw	r24, r16
    1622:	0a 96       	adiw	r24, 0x0a	; 10
    1624:	fc 01       	movw	r30, r24
    1626:	80 81       	ld	r24, Z
    1628:	88 2f       	mov	r24, r24
    162a:	90 e0       	ldi	r25, 0x00	; 0
    162c:	80 50       	subi	r24, 0x00	; 0
    162e:	9e 4f       	sbci	r25, 0xFE	; 254
    1630:	fc 01       	movw	r30, r24
    1632:	80 81       	ld	r24, Z
    1634:	8c 8f       	std	Y+28, r24	; 0x1c
    1636:	c8 01       	movw	r24, r16
    1638:	0b 96       	adiw	r24, 0x0b	; 11
    163a:	fc 01       	movw	r30, r24
    163c:	80 81       	ld	r24, Z
    163e:	88 2f       	mov	r24, r24
    1640:	90 e0       	ldi	r25, 0x00	; 0
    1642:	80 50       	subi	r24, 0x00	; 0
    1644:	9e 4f       	sbci	r25, 0xFE	; 254
    1646:	fc 01       	movw	r30, r24
    1648:	80 81       	ld	r24, Z
    164a:	8d 8f       	std	Y+29, r24	; 0x1d
    164c:	c8 01       	movw	r24, r16
    164e:	0c 96       	adiw	r24, 0x0c	; 12
    1650:	fc 01       	movw	r30, r24
    1652:	80 81       	ld	r24, Z
    1654:	88 2f       	mov	r24, r24
    1656:	90 e0       	ldi	r25, 0x00	; 0
    1658:	80 50       	subi	r24, 0x00	; 0
    165a:	9e 4f       	sbci	r25, 0xFE	; 254
    165c:	fc 01       	movw	r30, r24
    165e:	80 81       	ld	r24, Z
    1660:	8e 8f       	std	Y+30, r24	; 0x1e
    1662:	c8 01       	movw	r24, r16
    1664:	0d 96       	adiw	r24, 0x0d	; 13
    1666:	fc 01       	movw	r30, r24
    1668:	80 81       	ld	r24, Z
    166a:	88 2f       	mov	r24, r24
    166c:	90 e0       	ldi	r25, 0x00	; 0
    166e:	80 50       	subi	r24, 0x00	; 0
    1670:	9e 4f       	sbci	r25, 0xFE	; 254
    1672:	fc 01       	movw	r30, r24
    1674:	80 81       	ld	r24, Z
    1676:	8f 8f       	std	Y+31, r24	; 0x1f
    1678:	c8 01       	movw	r24, r16
    167a:	0e 96       	adiw	r24, 0x0e	; 14
    167c:	fc 01       	movw	r30, r24
    167e:	80 81       	ld	r24, Z
    1680:	88 2f       	mov	r24, r24
    1682:	90 e0       	ldi	r25, 0x00	; 0
    1684:	80 50       	subi	r24, 0x00	; 0
    1686:	9e 4f       	sbci	r25, 0xFE	; 254
    1688:	fc 01       	movw	r30, r24
    168a:	80 81       	ld	r24, Z
    168c:	88 a3       	std	Y+32, r24	; 0x20
    168e:	c8 01       	movw	r24, r16
    1690:	0f 96       	adiw	r24, 0x0f	; 15
    1692:	fc 01       	movw	r30, r24
    1694:	80 81       	ld	r24, Z
    1696:	88 2f       	mov	r24, r24
    1698:	90 e0       	ldi	r25, 0x00	; 0
    169a:	80 50       	subi	r24, 0x00	; 0
    169c:	9e 4f       	sbci	r25, 0xFE	; 254
    169e:	fc 01       	movw	r30, r24
    16a0:	80 81       	ld	r24, Z
    16a2:	89 a3       	std	Y+33, r24	; 0x21
    16a4:	ce 01       	movw	r24, r28
    16a6:	42 96       	adiw	r24, 0x12	; 18
    16a8:	52 dd       	rcall	.-1372   	; 0x114e <shift_rows>
    16aa:	9a 89       	ldd	r25, Y+18	; 0x12
    16ac:	8b 89       	ldd	r24, Y+19	; 0x13
    16ae:	98 27       	eor	r25, r24
    16b0:	8c 89       	ldd	r24, Y+20	; 0x14
    16b2:	98 27       	eor	r25, r24
    16b4:	8d 89       	ldd	r24, Y+21	; 0x15
    16b6:	89 27       	eor	r24, r25
    16b8:	89 83       	std	Y+1, r24	; 0x01
    16ba:	9a 89       	ldd	r25, Y+18	; 0x12
    16bc:	8b 89       	ldd	r24, Y+19	; 0x13
    16be:	89 27       	eor	r24, r25
    16c0:	8a 83       	std	Y+2, r24	; 0x02
    16c2:	8a 81       	ldd	r24, Y+2	; 0x02
    16c4:	88 23       	and	r24, r24
    16c6:	4c f4       	brge	.+18     	; 0x16da <aes_encrypt_128+0x4d4>
    16c8:	8a 81       	ldd	r24, Y+2	; 0x02
    16ca:	88 2f       	mov	r24, r24
    16cc:	90 e0       	ldi	r25, 0x00	; 0
    16ce:	88 0f       	add	r24, r24
    16d0:	99 1f       	adc	r25, r25
    16d2:	98 2f       	mov	r25, r24
    16d4:	8b e1       	ldi	r24, 0x1B	; 27
    16d6:	89 27       	eor	r24, r25
    16d8:	02 c0       	rjmp	.+4      	; 0x16de <aes_encrypt_128+0x4d8>
    16da:	8a 81       	ldd	r24, Y+2	; 0x02
    16dc:	88 0f       	add	r24, r24
    16de:	9a 89       	ldd	r25, Y+18	; 0x12
    16e0:	98 27       	eor	r25, r24
    16e2:	89 81       	ldd	r24, Y+1	; 0x01
    16e4:	89 27       	eor	r24, r25
    16e6:	f8 01       	movw	r30, r16
    16e8:	80 83       	st	Z, r24
    16ea:	c8 01       	movw	r24, r16
    16ec:	01 96       	adiw	r24, 0x01	; 1
    16ee:	3b 89       	ldd	r19, Y+19	; 0x13
    16f0:	2c 89       	ldd	r18, Y+20	; 0x14
    16f2:	23 27       	eor	r18, r19
    16f4:	2b 83       	std	Y+3, r18	; 0x03
    16f6:	2b 81       	ldd	r18, Y+3	; 0x03
    16f8:	22 23       	and	r18, r18
    16fa:	4c f4       	brge	.+18     	; 0x170e <aes_encrypt_128+0x508>
    16fc:	2b 81       	ldd	r18, Y+3	; 0x03
    16fe:	22 2f       	mov	r18, r18
    1700:	30 e0       	ldi	r19, 0x00	; 0
    1702:	22 0f       	add	r18, r18
    1704:	33 1f       	adc	r19, r19
    1706:	32 2f       	mov	r19, r18
    1708:	2b e1       	ldi	r18, 0x1B	; 27
    170a:	23 27       	eor	r18, r19
    170c:	02 c0       	rjmp	.+4      	; 0x1712 <aes_encrypt_128+0x50c>
    170e:	2b 81       	ldd	r18, Y+3	; 0x03
    1710:	22 0f       	add	r18, r18
    1712:	3b 89       	ldd	r19, Y+19	; 0x13
    1714:	32 27       	eor	r19, r18
    1716:	29 81       	ldd	r18, Y+1	; 0x01
    1718:	23 27       	eor	r18, r19
    171a:	fc 01       	movw	r30, r24
    171c:	20 83       	st	Z, r18
    171e:	c8 01       	movw	r24, r16
    1720:	02 96       	adiw	r24, 0x02	; 2
    1722:	3c 89       	ldd	r19, Y+20	; 0x14
    1724:	2d 89       	ldd	r18, Y+21	; 0x15
    1726:	23 27       	eor	r18, r19
    1728:	2c 83       	std	Y+4, r18	; 0x04
    172a:	2c 81       	ldd	r18, Y+4	; 0x04
    172c:	22 23       	and	r18, r18
    172e:	4c f4       	brge	.+18     	; 0x1742 <aes_encrypt_128+0x53c>
    1730:	2c 81       	ldd	r18, Y+4	; 0x04
    1732:	22 2f       	mov	r18, r18
    1734:	30 e0       	ldi	r19, 0x00	; 0
    1736:	22 0f       	add	r18, r18
    1738:	33 1f       	adc	r19, r19
    173a:	32 2f       	mov	r19, r18
    173c:	2b e1       	ldi	r18, 0x1B	; 27
    173e:	23 27       	eor	r18, r19
    1740:	02 c0       	rjmp	.+4      	; 0x1746 <aes_encrypt_128+0x540>
    1742:	2c 81       	ldd	r18, Y+4	; 0x04
    1744:	22 0f       	add	r18, r18
    1746:	3c 89       	ldd	r19, Y+20	; 0x14
    1748:	32 27       	eor	r19, r18
    174a:	29 81       	ldd	r18, Y+1	; 0x01
    174c:	23 27       	eor	r18, r19
    174e:	fc 01       	movw	r30, r24
    1750:	20 83       	st	Z, r18
    1752:	c8 01       	movw	r24, r16
    1754:	03 96       	adiw	r24, 0x03	; 3
    1756:	3d 89       	ldd	r19, Y+21	; 0x15
    1758:	2a 89       	ldd	r18, Y+18	; 0x12
    175a:	23 27       	eor	r18, r19
    175c:	2d 83       	std	Y+5, r18	; 0x05
    175e:	2d 81       	ldd	r18, Y+5	; 0x05
    1760:	22 23       	and	r18, r18
    1762:	4c f4       	brge	.+18     	; 0x1776 <aes_encrypt_128+0x570>
    1764:	2d 81       	ldd	r18, Y+5	; 0x05
    1766:	22 2f       	mov	r18, r18
    1768:	30 e0       	ldi	r19, 0x00	; 0
    176a:	22 0f       	add	r18, r18
    176c:	33 1f       	adc	r19, r19
    176e:	32 2f       	mov	r19, r18
    1770:	2b e1       	ldi	r18, 0x1B	; 27
    1772:	23 27       	eor	r18, r19
    1774:	02 c0       	rjmp	.+4      	; 0x177a <aes_encrypt_128+0x574>
    1776:	2d 81       	ldd	r18, Y+5	; 0x05
    1778:	22 0f       	add	r18, r18
    177a:	3d 89       	ldd	r19, Y+21	; 0x15
    177c:	32 27       	eor	r19, r18
    177e:	29 81       	ldd	r18, Y+1	; 0x01
    1780:	23 27       	eor	r18, r19
    1782:	fc 01       	movw	r30, r24
    1784:	20 83       	st	Z, r18
    1786:	9e 89       	ldd	r25, Y+22	; 0x16
    1788:	8f 89       	ldd	r24, Y+23	; 0x17
    178a:	98 27       	eor	r25, r24
    178c:	88 8d       	ldd	r24, Y+24	; 0x18
    178e:	98 27       	eor	r25, r24
    1790:	89 8d       	ldd	r24, Y+25	; 0x19
    1792:	89 27       	eor	r24, r25
    1794:	89 83       	std	Y+1, r24	; 0x01
    1796:	c8 01       	movw	r24, r16
    1798:	04 96       	adiw	r24, 0x04	; 4
    179a:	3e 89       	ldd	r19, Y+22	; 0x16
    179c:	2f 89       	ldd	r18, Y+23	; 0x17
    179e:	23 27       	eor	r18, r19
    17a0:	2e 83       	std	Y+6, r18	; 0x06
    17a2:	2e 81       	ldd	r18, Y+6	; 0x06
    17a4:	22 23       	and	r18, r18
    17a6:	4c f4       	brge	.+18     	; 0x17ba <aes_encrypt_128+0x5b4>
    17a8:	2e 81       	ldd	r18, Y+6	; 0x06
    17aa:	22 2f       	mov	r18, r18
    17ac:	30 e0       	ldi	r19, 0x00	; 0
    17ae:	22 0f       	add	r18, r18
    17b0:	33 1f       	adc	r19, r19
    17b2:	32 2f       	mov	r19, r18
    17b4:	2b e1       	ldi	r18, 0x1B	; 27
    17b6:	23 27       	eor	r18, r19
    17b8:	02 c0       	rjmp	.+4      	; 0x17be <aes_encrypt_128+0x5b8>
    17ba:	2e 81       	ldd	r18, Y+6	; 0x06
    17bc:	22 0f       	add	r18, r18
    17be:	3e 89       	ldd	r19, Y+22	; 0x16
    17c0:	32 27       	eor	r19, r18
    17c2:	29 81       	ldd	r18, Y+1	; 0x01
    17c4:	23 27       	eor	r18, r19
    17c6:	fc 01       	movw	r30, r24
    17c8:	20 83       	st	Z, r18
    17ca:	c8 01       	movw	r24, r16
    17cc:	05 96       	adiw	r24, 0x05	; 5
    17ce:	3f 89       	ldd	r19, Y+23	; 0x17
    17d0:	28 8d       	ldd	r18, Y+24	; 0x18
    17d2:	23 27       	eor	r18, r19
    17d4:	2f 83       	std	Y+7, r18	; 0x07
    17d6:	2f 81       	ldd	r18, Y+7	; 0x07
    17d8:	22 23       	and	r18, r18
    17da:	4c f4       	brge	.+18     	; 0x17ee <aes_encrypt_128+0x5e8>
    17dc:	2f 81       	ldd	r18, Y+7	; 0x07
    17de:	22 2f       	mov	r18, r18
    17e0:	30 e0       	ldi	r19, 0x00	; 0
    17e2:	22 0f       	add	r18, r18
    17e4:	33 1f       	adc	r19, r19
    17e6:	32 2f       	mov	r19, r18
    17e8:	2b e1       	ldi	r18, 0x1B	; 27
    17ea:	23 27       	eor	r18, r19
    17ec:	02 c0       	rjmp	.+4      	; 0x17f2 <aes_encrypt_128+0x5ec>
    17ee:	2f 81       	ldd	r18, Y+7	; 0x07
    17f0:	22 0f       	add	r18, r18
    17f2:	3f 89       	ldd	r19, Y+23	; 0x17
    17f4:	32 27       	eor	r19, r18
    17f6:	29 81       	ldd	r18, Y+1	; 0x01
    17f8:	23 27       	eor	r18, r19
    17fa:	fc 01       	movw	r30, r24
    17fc:	20 83       	st	Z, r18
    17fe:	c8 01       	movw	r24, r16
    1800:	06 96       	adiw	r24, 0x06	; 6
    1802:	38 8d       	ldd	r19, Y+24	; 0x18
    1804:	29 8d       	ldd	r18, Y+25	; 0x19
    1806:	23 27       	eor	r18, r19
    1808:	28 87       	std	Y+8, r18	; 0x08
    180a:	28 85       	ldd	r18, Y+8	; 0x08
    180c:	22 23       	and	r18, r18
    180e:	4c f4       	brge	.+18     	; 0x1822 <aes_encrypt_128+0x61c>
    1810:	28 85       	ldd	r18, Y+8	; 0x08
    1812:	22 2f       	mov	r18, r18
    1814:	30 e0       	ldi	r19, 0x00	; 0
    1816:	22 0f       	add	r18, r18
    1818:	33 1f       	adc	r19, r19
    181a:	32 2f       	mov	r19, r18
    181c:	2b e1       	ldi	r18, 0x1B	; 27
    181e:	23 27       	eor	r18, r19
    1820:	02 c0       	rjmp	.+4      	; 0x1826 <aes_encrypt_128+0x620>
    1822:	28 85       	ldd	r18, Y+8	; 0x08
    1824:	22 0f       	add	r18, r18
    1826:	38 8d       	ldd	r19, Y+24	; 0x18
    1828:	32 27       	eor	r19, r18
    182a:	29 81       	ldd	r18, Y+1	; 0x01
    182c:	23 27       	eor	r18, r19
    182e:	fc 01       	movw	r30, r24
    1830:	20 83       	st	Z, r18
    1832:	c8 01       	movw	r24, r16
    1834:	07 96       	adiw	r24, 0x07	; 7
    1836:	39 8d       	ldd	r19, Y+25	; 0x19
    1838:	2e 89       	ldd	r18, Y+22	; 0x16
    183a:	23 27       	eor	r18, r19
    183c:	29 87       	std	Y+9, r18	; 0x09
    183e:	29 85       	ldd	r18, Y+9	; 0x09
    1840:	22 23       	and	r18, r18
    1842:	4c f4       	brge	.+18     	; 0x1856 <aes_encrypt_128+0x650>
    1844:	29 85       	ldd	r18, Y+9	; 0x09
    1846:	22 2f       	mov	r18, r18
    1848:	30 e0       	ldi	r19, 0x00	; 0
    184a:	22 0f       	add	r18, r18
    184c:	33 1f       	adc	r19, r19
    184e:	32 2f       	mov	r19, r18
    1850:	2b e1       	ldi	r18, 0x1B	; 27
    1852:	23 27       	eor	r18, r19
    1854:	02 c0       	rjmp	.+4      	; 0x185a <aes_encrypt_128+0x654>
    1856:	29 85       	ldd	r18, Y+9	; 0x09
    1858:	22 0f       	add	r18, r18
    185a:	39 8d       	ldd	r19, Y+25	; 0x19
    185c:	32 27       	eor	r19, r18
    185e:	29 81       	ldd	r18, Y+1	; 0x01
    1860:	23 27       	eor	r18, r19
    1862:	fc 01       	movw	r30, r24
    1864:	20 83       	st	Z, r18
    1866:	9a 8d       	ldd	r25, Y+26	; 0x1a
    1868:	8b 8d       	ldd	r24, Y+27	; 0x1b
    186a:	98 27       	eor	r25, r24
    186c:	8c 8d       	ldd	r24, Y+28	; 0x1c
    186e:	98 27       	eor	r25, r24
    1870:	8d 8d       	ldd	r24, Y+29	; 0x1d
    1872:	89 27       	eor	r24, r25
    1874:	89 83       	std	Y+1, r24	; 0x01
    1876:	c8 01       	movw	r24, r16
    1878:	08 96       	adiw	r24, 0x08	; 8
    187a:	3a 8d       	ldd	r19, Y+26	; 0x1a
    187c:	2b 8d       	ldd	r18, Y+27	; 0x1b
    187e:	23 27       	eor	r18, r19
    1880:	2a 87       	std	Y+10, r18	; 0x0a
    1882:	2a 85       	ldd	r18, Y+10	; 0x0a
    1884:	22 23       	and	r18, r18
    1886:	4c f4       	brge	.+18     	; 0x189a <aes_encrypt_128+0x694>
    1888:	2a 85       	ldd	r18, Y+10	; 0x0a
    188a:	22 2f       	mov	r18, r18
    188c:	30 e0       	ldi	r19, 0x00	; 0
    188e:	22 0f       	add	r18, r18
    1890:	33 1f       	adc	r19, r19
    1892:	32 2f       	mov	r19, r18
    1894:	2b e1       	ldi	r18, 0x1B	; 27
    1896:	23 27       	eor	r18, r19
    1898:	02 c0       	rjmp	.+4      	; 0x189e <aes_encrypt_128+0x698>
    189a:	2a 85       	ldd	r18, Y+10	; 0x0a
    189c:	22 0f       	add	r18, r18
    189e:	3a 8d       	ldd	r19, Y+26	; 0x1a
    18a0:	32 27       	eor	r19, r18
    18a2:	29 81       	ldd	r18, Y+1	; 0x01
    18a4:	23 27       	eor	r18, r19
    18a6:	fc 01       	movw	r30, r24
    18a8:	20 83       	st	Z, r18
    18aa:	c8 01       	movw	r24, r16
    18ac:	09 96       	adiw	r24, 0x09	; 9
    18ae:	3b 8d       	ldd	r19, Y+27	; 0x1b
    18b0:	2c 8d       	ldd	r18, Y+28	; 0x1c
    18b2:	23 27       	eor	r18, r19
    18b4:	2b 87       	std	Y+11, r18	; 0x0b
    18b6:	2b 85       	ldd	r18, Y+11	; 0x0b
    18b8:	22 23       	and	r18, r18
    18ba:	4c f4       	brge	.+18     	; 0x18ce <aes_encrypt_128+0x6c8>
    18bc:	2b 85       	ldd	r18, Y+11	; 0x0b
    18be:	22 2f       	mov	r18, r18
    18c0:	30 e0       	ldi	r19, 0x00	; 0
    18c2:	22 0f       	add	r18, r18
    18c4:	33 1f       	adc	r19, r19
    18c6:	32 2f       	mov	r19, r18
    18c8:	2b e1       	ldi	r18, 0x1B	; 27
    18ca:	23 27       	eor	r18, r19
    18cc:	02 c0       	rjmp	.+4      	; 0x18d2 <aes_encrypt_128+0x6cc>
    18ce:	2b 85       	ldd	r18, Y+11	; 0x0b
    18d0:	22 0f       	add	r18, r18
    18d2:	3b 8d       	ldd	r19, Y+27	; 0x1b
    18d4:	32 27       	eor	r19, r18
    18d6:	29 81       	ldd	r18, Y+1	; 0x01
    18d8:	23 27       	eor	r18, r19
    18da:	fc 01       	movw	r30, r24
    18dc:	20 83       	st	Z, r18
    18de:	c8 01       	movw	r24, r16
    18e0:	0a 96       	adiw	r24, 0x0a	; 10
    18e2:	3c 8d       	ldd	r19, Y+28	; 0x1c
    18e4:	2d 8d       	ldd	r18, Y+29	; 0x1d
    18e6:	23 27       	eor	r18, r19
    18e8:	2c 87       	std	Y+12, r18	; 0x0c
    18ea:	2c 85       	ldd	r18, Y+12	; 0x0c
    18ec:	22 23       	and	r18, r18
    18ee:	4c f4       	brge	.+18     	; 0x1902 <aes_encrypt_128+0x6fc>
    18f0:	2c 85       	ldd	r18, Y+12	; 0x0c
    18f2:	22 2f       	mov	r18, r18
    18f4:	30 e0       	ldi	r19, 0x00	; 0
    18f6:	22 0f       	add	r18, r18
    18f8:	33 1f       	adc	r19, r19
    18fa:	32 2f       	mov	r19, r18
    18fc:	2b e1       	ldi	r18, 0x1B	; 27
    18fe:	23 27       	eor	r18, r19
    1900:	02 c0       	rjmp	.+4      	; 0x1906 <aes_encrypt_128+0x700>
    1902:	2c 85       	ldd	r18, Y+12	; 0x0c
    1904:	22 0f       	add	r18, r18
    1906:	3c 8d       	ldd	r19, Y+28	; 0x1c
    1908:	32 27       	eor	r19, r18
    190a:	29 81       	ldd	r18, Y+1	; 0x01
    190c:	23 27       	eor	r18, r19
    190e:	fc 01       	movw	r30, r24
    1910:	20 83       	st	Z, r18
    1912:	c8 01       	movw	r24, r16
    1914:	0b 96       	adiw	r24, 0x0b	; 11
    1916:	3d 8d       	ldd	r19, Y+29	; 0x1d
    1918:	2a 8d       	ldd	r18, Y+26	; 0x1a
    191a:	23 27       	eor	r18, r19
    191c:	2d 87       	std	Y+13, r18	; 0x0d
    191e:	2d 85       	ldd	r18, Y+13	; 0x0d
    1920:	22 23       	and	r18, r18
    1922:	4c f4       	brge	.+18     	; 0x1936 <aes_encrypt_128+0x730>
    1924:	2d 85       	ldd	r18, Y+13	; 0x0d
    1926:	22 2f       	mov	r18, r18
    1928:	30 e0       	ldi	r19, 0x00	; 0
    192a:	22 0f       	add	r18, r18
    192c:	33 1f       	adc	r19, r19
    192e:	32 2f       	mov	r19, r18
    1930:	2b e1       	ldi	r18, 0x1B	; 27
    1932:	23 27       	eor	r18, r19
    1934:	02 c0       	rjmp	.+4      	; 0x193a <aes_encrypt_128+0x734>
    1936:	2d 85       	ldd	r18, Y+13	; 0x0d
    1938:	22 0f       	add	r18, r18
    193a:	3d 8d       	ldd	r19, Y+29	; 0x1d
    193c:	32 27       	eor	r19, r18
    193e:	29 81       	ldd	r18, Y+1	; 0x01
    1940:	23 27       	eor	r18, r19
    1942:	fc 01       	movw	r30, r24
    1944:	20 83       	st	Z, r18
    1946:	9e 8d       	ldd	r25, Y+30	; 0x1e
    1948:	8f 8d       	ldd	r24, Y+31	; 0x1f
    194a:	98 27       	eor	r25, r24
    194c:	88 a1       	ldd	r24, Y+32	; 0x20
    194e:	98 27       	eor	r25, r24
    1950:	89 a1       	ldd	r24, Y+33	; 0x21
    1952:	89 27       	eor	r24, r25
    1954:	89 83       	std	Y+1, r24	; 0x01
    1956:	c8 01       	movw	r24, r16
    1958:	0c 96       	adiw	r24, 0x0c	; 12
    195a:	3e 8d       	ldd	r19, Y+30	; 0x1e
    195c:	2f 8d       	ldd	r18, Y+31	; 0x1f
    195e:	23 27       	eor	r18, r19
    1960:	2e 87       	std	Y+14, r18	; 0x0e
    1962:	2e 85       	ldd	r18, Y+14	; 0x0e
    1964:	22 23       	and	r18, r18
    1966:	4c f4       	brge	.+18     	; 0x197a <aes_encrypt_128+0x774>
    1968:	2e 85       	ldd	r18, Y+14	; 0x0e
    196a:	22 2f       	mov	r18, r18
    196c:	30 e0       	ldi	r19, 0x00	; 0
    196e:	22 0f       	add	r18, r18
    1970:	33 1f       	adc	r19, r19
    1972:	32 2f       	mov	r19, r18
    1974:	2b e1       	ldi	r18, 0x1B	; 27
    1976:	23 27       	eor	r18, r19
    1978:	02 c0       	rjmp	.+4      	; 0x197e <aes_encrypt_128+0x778>
    197a:	2e 85       	ldd	r18, Y+14	; 0x0e
    197c:	22 0f       	add	r18, r18
    197e:	3e 8d       	ldd	r19, Y+30	; 0x1e
    1980:	32 27       	eor	r19, r18
    1982:	29 81       	ldd	r18, Y+1	; 0x01
    1984:	23 27       	eor	r18, r19
    1986:	fc 01       	movw	r30, r24
    1988:	20 83       	st	Z, r18
    198a:	c8 01       	movw	r24, r16
    198c:	0d 96       	adiw	r24, 0x0d	; 13
    198e:	3f 8d       	ldd	r19, Y+31	; 0x1f
    1990:	28 a1       	ldd	r18, Y+32	; 0x20
    1992:	23 27       	eor	r18, r19
    1994:	2f 87       	std	Y+15, r18	; 0x0f
    1996:	2f 85       	ldd	r18, Y+15	; 0x0f
    1998:	22 23       	and	r18, r18
    199a:	4c f4       	brge	.+18     	; 0x19ae <aes_encrypt_128+0x7a8>
    199c:	2f 85       	ldd	r18, Y+15	; 0x0f
    199e:	22 2f       	mov	r18, r18
    19a0:	30 e0       	ldi	r19, 0x00	; 0
    19a2:	22 0f       	add	r18, r18
    19a4:	33 1f       	adc	r19, r19
    19a6:	32 2f       	mov	r19, r18
    19a8:	2b e1       	ldi	r18, 0x1B	; 27
    19aa:	23 27       	eor	r18, r19
    19ac:	02 c0       	rjmp	.+4      	; 0x19b2 <aes_encrypt_128+0x7ac>
    19ae:	2f 85       	ldd	r18, Y+15	; 0x0f
    19b0:	22 0f       	add	r18, r18
    19b2:	3f 8d       	ldd	r19, Y+31	; 0x1f
    19b4:	32 27       	eor	r19, r18
    19b6:	29 81       	ldd	r18, Y+1	; 0x01
    19b8:	23 27       	eor	r18, r19
    19ba:	fc 01       	movw	r30, r24
    19bc:	20 83       	st	Z, r18
    19be:	c8 01       	movw	r24, r16
    19c0:	0e 96       	adiw	r24, 0x0e	; 14
    19c2:	38 a1       	ldd	r19, Y+32	; 0x20
    19c4:	29 a1       	ldd	r18, Y+33	; 0x21
    19c6:	23 27       	eor	r18, r19
    19c8:	28 8b       	std	Y+16, r18	; 0x10
    19ca:	28 89       	ldd	r18, Y+16	; 0x10
    19cc:	22 23       	and	r18, r18
    19ce:	4c f4       	brge	.+18     	; 0x19e2 <aes_encrypt_128+0x7dc>
    19d0:	28 89       	ldd	r18, Y+16	; 0x10
    19d2:	22 2f       	mov	r18, r18
    19d4:	30 e0       	ldi	r19, 0x00	; 0
    19d6:	22 0f       	add	r18, r18
    19d8:	33 1f       	adc	r19, r19
    19da:	32 2f       	mov	r19, r18
    19dc:	2b e1       	ldi	r18, 0x1B	; 27
    19de:	23 27       	eor	r18, r19
    19e0:	02 c0       	rjmp	.+4      	; 0x19e6 <aes_encrypt_128+0x7e0>
    19e2:	28 89       	ldd	r18, Y+16	; 0x10
    19e4:	22 0f       	add	r18, r18
    19e6:	38 a1       	ldd	r19, Y+32	; 0x20
    19e8:	32 27       	eor	r19, r18
    19ea:	29 81       	ldd	r18, Y+1	; 0x01
    19ec:	23 27       	eor	r18, r19
    19ee:	fc 01       	movw	r30, r24
    19f0:	20 83       	st	Z, r18
    19f2:	c8 01       	movw	r24, r16
    19f4:	0f 96       	adiw	r24, 0x0f	; 15
    19f6:	39 a1       	ldd	r19, Y+33	; 0x21
    19f8:	2e 8d       	ldd	r18, Y+30	; 0x1e
    19fa:	23 27       	eor	r18, r19
    19fc:	29 8b       	std	Y+17, r18	; 0x11
    19fe:	29 89       	ldd	r18, Y+17	; 0x11
    1a00:	22 23       	and	r18, r18
    1a02:	4c f4       	brge	.+18     	; 0x1a16 <aes_encrypt_128+0x810>
    1a04:	29 89       	ldd	r18, Y+17	; 0x11
    1a06:	22 2f       	mov	r18, r18
    1a08:	30 e0       	ldi	r19, 0x00	; 0
    1a0a:	22 0f       	add	r18, r18
    1a0c:	33 1f       	adc	r19, r19
    1a0e:	32 2f       	mov	r19, r18
    1a10:	2b e1       	ldi	r18, 0x1B	; 27
    1a12:	23 27       	eor	r18, r19
    1a14:	02 c0       	rjmp	.+4      	; 0x1a1a <aes_encrypt_128+0x814>
    1a16:	29 89       	ldd	r18, Y+17	; 0x11
    1a18:	22 0f       	add	r18, r18
    1a1a:	39 a1       	ldd	r19, Y+33	; 0x21
    1a1c:	32 27       	eor	r19, r18
    1a1e:	29 81       	ldd	r18, Y+1	; 0x01
    1a20:	23 27       	eor	r18, r19
    1a22:	fc 01       	movw	r30, r24
    1a24:	20 83       	st	Z, r18
    1a26:	c7 01       	movw	r24, r14
    1a28:	7c 01       	movw	r14, r24
    1a2a:	ff ef       	ldi	r31, 0xFF	; 255
    1a2c:	ef 1a       	sub	r14, r31
    1a2e:	ff 0a       	sbc	r15, r31
    1a30:	fc 01       	movw	r30, r24
    1a32:	80 81       	ld	r24, Z
    1a34:	f8 01       	movw	r30, r16
    1a36:	90 81       	ld	r25, Z
    1a38:	89 27       	eor	r24, r25
    1a3a:	f8 01       	movw	r30, r16
    1a3c:	80 83       	st	Z, r24
    1a3e:	c7 01       	movw	r24, r14
    1a40:	7c 01       	movw	r14, r24
    1a42:	ff ef       	ldi	r31, 0xFF	; 255
    1a44:	ef 1a       	sub	r14, r31
    1a46:	ff 0a       	sbc	r15, r31
    1a48:	fc 01       	movw	r30, r24
    1a4a:	40 81       	ld	r20, Z
    1a4c:	c8 01       	movw	r24, r16
    1a4e:	01 96       	adiw	r24, 0x01	; 1
    1a50:	98 01       	movw	r18, r16
    1a52:	2f 5f       	subi	r18, 0xFF	; 255
    1a54:	3f 4f       	sbci	r19, 0xFF	; 255
    1a56:	f9 01       	movw	r30, r18
    1a58:	20 81       	ld	r18, Z
    1a5a:	24 27       	eor	r18, r20
    1a5c:	fc 01       	movw	r30, r24
    1a5e:	20 83       	st	Z, r18
    1a60:	c7 01       	movw	r24, r14
    1a62:	7c 01       	movw	r14, r24
    1a64:	ff ef       	ldi	r31, 0xFF	; 255
    1a66:	ef 1a       	sub	r14, r31
    1a68:	ff 0a       	sbc	r15, r31
    1a6a:	fc 01       	movw	r30, r24
    1a6c:	40 81       	ld	r20, Z
    1a6e:	c8 01       	movw	r24, r16
    1a70:	02 96       	adiw	r24, 0x02	; 2
    1a72:	98 01       	movw	r18, r16
    1a74:	2e 5f       	subi	r18, 0xFE	; 254
    1a76:	3f 4f       	sbci	r19, 0xFF	; 255
    1a78:	f9 01       	movw	r30, r18
    1a7a:	20 81       	ld	r18, Z
    1a7c:	24 27       	eor	r18, r20
    1a7e:	fc 01       	movw	r30, r24
    1a80:	20 83       	st	Z, r18
    1a82:	c7 01       	movw	r24, r14
    1a84:	7c 01       	movw	r14, r24
    1a86:	ff ef       	ldi	r31, 0xFF	; 255
    1a88:	ef 1a       	sub	r14, r31
    1a8a:	ff 0a       	sbc	r15, r31
    1a8c:	fc 01       	movw	r30, r24
    1a8e:	40 81       	ld	r20, Z
    1a90:	c8 01       	movw	r24, r16
    1a92:	03 96       	adiw	r24, 0x03	; 3
    1a94:	98 01       	movw	r18, r16
    1a96:	2d 5f       	subi	r18, 0xFD	; 253
    1a98:	3f 4f       	sbci	r19, 0xFF	; 255
    1a9a:	f9 01       	movw	r30, r18
    1a9c:	20 81       	ld	r18, Z
    1a9e:	24 27       	eor	r18, r20
    1aa0:	fc 01       	movw	r30, r24
    1aa2:	20 83       	st	Z, r18
    1aa4:	c7 01       	movw	r24, r14
    1aa6:	7c 01       	movw	r14, r24
    1aa8:	ff ef       	ldi	r31, 0xFF	; 255
    1aaa:	ef 1a       	sub	r14, r31
    1aac:	ff 0a       	sbc	r15, r31
    1aae:	fc 01       	movw	r30, r24
    1ab0:	40 81       	ld	r20, Z
    1ab2:	c8 01       	movw	r24, r16
    1ab4:	04 96       	adiw	r24, 0x04	; 4
    1ab6:	98 01       	movw	r18, r16
    1ab8:	2c 5f       	subi	r18, 0xFC	; 252
    1aba:	3f 4f       	sbci	r19, 0xFF	; 255
    1abc:	f9 01       	movw	r30, r18
    1abe:	20 81       	ld	r18, Z
    1ac0:	24 27       	eor	r18, r20
    1ac2:	fc 01       	movw	r30, r24
    1ac4:	20 83       	st	Z, r18
    1ac6:	c7 01       	movw	r24, r14
    1ac8:	7c 01       	movw	r14, r24
    1aca:	ff ef       	ldi	r31, 0xFF	; 255
    1acc:	ef 1a       	sub	r14, r31
    1ace:	ff 0a       	sbc	r15, r31
    1ad0:	fc 01       	movw	r30, r24
    1ad2:	40 81       	ld	r20, Z
    1ad4:	c8 01       	movw	r24, r16
    1ad6:	05 96       	adiw	r24, 0x05	; 5
    1ad8:	98 01       	movw	r18, r16
    1ada:	2b 5f       	subi	r18, 0xFB	; 251
    1adc:	3f 4f       	sbci	r19, 0xFF	; 255
    1ade:	f9 01       	movw	r30, r18
    1ae0:	20 81       	ld	r18, Z
    1ae2:	24 27       	eor	r18, r20
    1ae4:	fc 01       	movw	r30, r24
    1ae6:	20 83       	st	Z, r18
    1ae8:	c7 01       	movw	r24, r14
    1aea:	7c 01       	movw	r14, r24
    1aec:	ff ef       	ldi	r31, 0xFF	; 255
    1aee:	ef 1a       	sub	r14, r31
    1af0:	ff 0a       	sbc	r15, r31
    1af2:	fc 01       	movw	r30, r24
    1af4:	40 81       	ld	r20, Z
    1af6:	c8 01       	movw	r24, r16
    1af8:	06 96       	adiw	r24, 0x06	; 6
    1afa:	98 01       	movw	r18, r16
    1afc:	2a 5f       	subi	r18, 0xFA	; 250
    1afe:	3f 4f       	sbci	r19, 0xFF	; 255
    1b00:	f9 01       	movw	r30, r18
    1b02:	20 81       	ld	r18, Z
    1b04:	24 27       	eor	r18, r20
    1b06:	fc 01       	movw	r30, r24
    1b08:	20 83       	st	Z, r18
    1b0a:	c7 01       	movw	r24, r14
    1b0c:	7c 01       	movw	r14, r24
    1b0e:	ff ef       	ldi	r31, 0xFF	; 255
    1b10:	ef 1a       	sub	r14, r31
    1b12:	ff 0a       	sbc	r15, r31
    1b14:	fc 01       	movw	r30, r24
    1b16:	40 81       	ld	r20, Z
    1b18:	c8 01       	movw	r24, r16
    1b1a:	07 96       	adiw	r24, 0x07	; 7
    1b1c:	98 01       	movw	r18, r16
    1b1e:	29 5f       	subi	r18, 0xF9	; 249
    1b20:	3f 4f       	sbci	r19, 0xFF	; 255
    1b22:	f9 01       	movw	r30, r18
    1b24:	20 81       	ld	r18, Z
    1b26:	24 27       	eor	r18, r20
    1b28:	fc 01       	movw	r30, r24
    1b2a:	20 83       	st	Z, r18
    1b2c:	c7 01       	movw	r24, r14
    1b2e:	7c 01       	movw	r14, r24
    1b30:	ff ef       	ldi	r31, 0xFF	; 255
    1b32:	ef 1a       	sub	r14, r31
    1b34:	ff 0a       	sbc	r15, r31
    1b36:	fc 01       	movw	r30, r24
    1b38:	40 81       	ld	r20, Z
    1b3a:	c8 01       	movw	r24, r16
    1b3c:	08 96       	adiw	r24, 0x08	; 8
    1b3e:	98 01       	movw	r18, r16
    1b40:	28 5f       	subi	r18, 0xF8	; 248
    1b42:	3f 4f       	sbci	r19, 0xFF	; 255
    1b44:	f9 01       	movw	r30, r18
    1b46:	20 81       	ld	r18, Z
    1b48:	24 27       	eor	r18, r20
    1b4a:	fc 01       	movw	r30, r24
    1b4c:	20 83       	st	Z, r18
    1b4e:	c7 01       	movw	r24, r14
    1b50:	7c 01       	movw	r14, r24
    1b52:	ff ef       	ldi	r31, 0xFF	; 255
    1b54:	ef 1a       	sub	r14, r31
    1b56:	ff 0a       	sbc	r15, r31
    1b58:	fc 01       	movw	r30, r24
    1b5a:	40 81       	ld	r20, Z
    1b5c:	c8 01       	movw	r24, r16
    1b5e:	09 96       	adiw	r24, 0x09	; 9
    1b60:	98 01       	movw	r18, r16
    1b62:	27 5f       	subi	r18, 0xF7	; 247
    1b64:	3f 4f       	sbci	r19, 0xFF	; 255
    1b66:	f9 01       	movw	r30, r18
    1b68:	20 81       	ld	r18, Z
    1b6a:	24 27       	eor	r18, r20
    1b6c:	fc 01       	movw	r30, r24
    1b6e:	20 83       	st	Z, r18
    1b70:	c7 01       	movw	r24, r14
    1b72:	7c 01       	movw	r14, r24
    1b74:	ff ef       	ldi	r31, 0xFF	; 255
    1b76:	ef 1a       	sub	r14, r31
    1b78:	ff 0a       	sbc	r15, r31
    1b7a:	fc 01       	movw	r30, r24
    1b7c:	40 81       	ld	r20, Z
    1b7e:	c8 01       	movw	r24, r16
    1b80:	0a 96       	adiw	r24, 0x0a	; 10
    1b82:	98 01       	movw	r18, r16
    1b84:	26 5f       	subi	r18, 0xF6	; 246
    1b86:	3f 4f       	sbci	r19, 0xFF	; 255
    1b88:	f9 01       	movw	r30, r18
    1b8a:	20 81       	ld	r18, Z
    1b8c:	24 27       	eor	r18, r20
    1b8e:	fc 01       	movw	r30, r24
    1b90:	20 83       	st	Z, r18
    1b92:	c7 01       	movw	r24, r14
    1b94:	7c 01       	movw	r14, r24
    1b96:	ff ef       	ldi	r31, 0xFF	; 255
    1b98:	ef 1a       	sub	r14, r31
    1b9a:	ff 0a       	sbc	r15, r31
    1b9c:	fc 01       	movw	r30, r24
    1b9e:	40 81       	ld	r20, Z
    1ba0:	c8 01       	movw	r24, r16
    1ba2:	0b 96       	adiw	r24, 0x0b	; 11
    1ba4:	98 01       	movw	r18, r16
    1ba6:	25 5f       	subi	r18, 0xF5	; 245
    1ba8:	3f 4f       	sbci	r19, 0xFF	; 255
    1baa:	f9 01       	movw	r30, r18
    1bac:	20 81       	ld	r18, Z
    1bae:	24 27       	eor	r18, r20
    1bb0:	fc 01       	movw	r30, r24
    1bb2:	20 83       	st	Z, r18
    1bb4:	c7 01       	movw	r24, r14
    1bb6:	7c 01       	movw	r14, r24
    1bb8:	ff ef       	ldi	r31, 0xFF	; 255
    1bba:	ef 1a       	sub	r14, r31
    1bbc:	ff 0a       	sbc	r15, r31
    1bbe:	fc 01       	movw	r30, r24
    1bc0:	40 81       	ld	r20, Z
    1bc2:	c8 01       	movw	r24, r16
    1bc4:	0c 96       	adiw	r24, 0x0c	; 12
    1bc6:	98 01       	movw	r18, r16
    1bc8:	24 5f       	subi	r18, 0xF4	; 244
    1bca:	3f 4f       	sbci	r19, 0xFF	; 255
    1bcc:	f9 01       	movw	r30, r18
    1bce:	20 81       	ld	r18, Z
    1bd0:	24 27       	eor	r18, r20
    1bd2:	fc 01       	movw	r30, r24
    1bd4:	20 83       	st	Z, r18
    1bd6:	c7 01       	movw	r24, r14
    1bd8:	7c 01       	movw	r14, r24
    1bda:	ff ef       	ldi	r31, 0xFF	; 255
    1bdc:	ef 1a       	sub	r14, r31
    1bde:	ff 0a       	sbc	r15, r31
    1be0:	fc 01       	movw	r30, r24
    1be2:	40 81       	ld	r20, Z
    1be4:	c8 01       	movw	r24, r16
    1be6:	0d 96       	adiw	r24, 0x0d	; 13
    1be8:	98 01       	movw	r18, r16
    1bea:	23 5f       	subi	r18, 0xF3	; 243
    1bec:	3f 4f       	sbci	r19, 0xFF	; 255
    1bee:	f9 01       	movw	r30, r18
    1bf0:	20 81       	ld	r18, Z
    1bf2:	24 27       	eor	r18, r20
    1bf4:	fc 01       	movw	r30, r24
    1bf6:	20 83       	st	Z, r18
    1bf8:	c7 01       	movw	r24, r14
    1bfa:	7c 01       	movw	r14, r24
    1bfc:	ff ef       	ldi	r31, 0xFF	; 255
    1bfe:	ef 1a       	sub	r14, r31
    1c00:	ff 0a       	sbc	r15, r31
    1c02:	fc 01       	movw	r30, r24
    1c04:	40 81       	ld	r20, Z
    1c06:	c8 01       	movw	r24, r16
    1c08:	0e 96       	adiw	r24, 0x0e	; 14
    1c0a:	98 01       	movw	r18, r16
    1c0c:	22 5f       	subi	r18, 0xF2	; 242
    1c0e:	3f 4f       	sbci	r19, 0xFF	; 255
    1c10:	f9 01       	movw	r30, r18
    1c12:	20 81       	ld	r18, Z
    1c14:	24 27       	eor	r18, r20
    1c16:	fc 01       	movw	r30, r24
    1c18:	20 83       	st	Z, r18
    1c1a:	c7 01       	movw	r24, r14
    1c1c:	7c 01       	movw	r14, r24
    1c1e:	ff ef       	ldi	r31, 0xFF	; 255
    1c20:	ef 1a       	sub	r14, r31
    1c22:	ff 0a       	sbc	r15, r31
    1c24:	fc 01       	movw	r30, r24
    1c26:	40 81       	ld	r20, Z
    1c28:	c8 01       	movw	r24, r16
    1c2a:	0f 96       	adiw	r24, 0x0f	; 15
    1c2c:	98 01       	movw	r18, r16
    1c2e:	21 5f       	subi	r18, 0xF1	; 241
    1c30:	3f 4f       	sbci	r19, 0xFF	; 255
    1c32:	f9 01       	movw	r30, r18
    1c34:	20 81       	ld	r18, Z
    1c36:	24 27       	eor	r18, r20
    1c38:	fc 01       	movw	r30, r24
    1c3a:	20 83       	st	Z, r18
    1c3c:	d3 94       	inc	r13
    1c3e:	f9 e0       	ldi	r31, 0x09	; 9
    1c40:	fd 15       	cp	r31, r13
    1c42:	08 f0       	brcs	.+2      	; 0x1c46 <aes_encrypt_128+0xa40>
    1c44:	81 cc       	rjmp	.-1790   	; 0x1548 <aes_encrypt_128+0x342>
    1c46:	f8 01       	movw	r30, r16
    1c48:	80 81       	ld	r24, Z
    1c4a:	88 2f       	mov	r24, r24
    1c4c:	90 e0       	ldi	r25, 0x00	; 0
    1c4e:	80 50       	subi	r24, 0x00	; 0
    1c50:	9e 4f       	sbci	r25, 0xFE	; 254
    1c52:	fc 01       	movw	r30, r24
    1c54:	80 81       	ld	r24, Z
    1c56:	f8 01       	movw	r30, r16
    1c58:	80 83       	st	Z, r24
    1c5a:	c8 01       	movw	r24, r16
    1c5c:	01 96       	adiw	r24, 0x01	; 1
    1c5e:	98 01       	movw	r18, r16
    1c60:	2f 5f       	subi	r18, 0xFF	; 255
    1c62:	3f 4f       	sbci	r19, 0xFF	; 255
    1c64:	f9 01       	movw	r30, r18
    1c66:	20 81       	ld	r18, Z
    1c68:	22 2f       	mov	r18, r18
    1c6a:	30 e0       	ldi	r19, 0x00	; 0
    1c6c:	20 50       	subi	r18, 0x00	; 0
    1c6e:	3e 4f       	sbci	r19, 0xFE	; 254
    1c70:	f9 01       	movw	r30, r18
    1c72:	20 81       	ld	r18, Z
    1c74:	fc 01       	movw	r30, r24
    1c76:	20 83       	st	Z, r18
    1c78:	c8 01       	movw	r24, r16
    1c7a:	02 96       	adiw	r24, 0x02	; 2
    1c7c:	98 01       	movw	r18, r16
    1c7e:	2e 5f       	subi	r18, 0xFE	; 254
    1c80:	3f 4f       	sbci	r19, 0xFF	; 255
    1c82:	f9 01       	movw	r30, r18
    1c84:	20 81       	ld	r18, Z
    1c86:	22 2f       	mov	r18, r18
    1c88:	30 e0       	ldi	r19, 0x00	; 0
    1c8a:	20 50       	subi	r18, 0x00	; 0
    1c8c:	3e 4f       	sbci	r19, 0xFE	; 254
    1c8e:	f9 01       	movw	r30, r18
    1c90:	20 81       	ld	r18, Z
    1c92:	fc 01       	movw	r30, r24
    1c94:	20 83       	st	Z, r18
    1c96:	c8 01       	movw	r24, r16
    1c98:	03 96       	adiw	r24, 0x03	; 3
    1c9a:	98 01       	movw	r18, r16
    1c9c:	2d 5f       	subi	r18, 0xFD	; 253
    1c9e:	3f 4f       	sbci	r19, 0xFF	; 255
    1ca0:	f9 01       	movw	r30, r18
    1ca2:	20 81       	ld	r18, Z
    1ca4:	22 2f       	mov	r18, r18
    1ca6:	30 e0       	ldi	r19, 0x00	; 0
    1ca8:	20 50       	subi	r18, 0x00	; 0
    1caa:	3e 4f       	sbci	r19, 0xFE	; 254
    1cac:	f9 01       	movw	r30, r18
    1cae:	20 81       	ld	r18, Z
    1cb0:	fc 01       	movw	r30, r24
    1cb2:	20 83       	st	Z, r18
    1cb4:	c8 01       	movw	r24, r16
    1cb6:	04 96       	adiw	r24, 0x04	; 4
    1cb8:	98 01       	movw	r18, r16
    1cba:	2c 5f       	subi	r18, 0xFC	; 252
    1cbc:	3f 4f       	sbci	r19, 0xFF	; 255
    1cbe:	f9 01       	movw	r30, r18
    1cc0:	20 81       	ld	r18, Z
    1cc2:	22 2f       	mov	r18, r18
    1cc4:	30 e0       	ldi	r19, 0x00	; 0
    1cc6:	20 50       	subi	r18, 0x00	; 0
    1cc8:	3e 4f       	sbci	r19, 0xFE	; 254
    1cca:	f9 01       	movw	r30, r18
    1ccc:	20 81       	ld	r18, Z
    1cce:	fc 01       	movw	r30, r24
    1cd0:	20 83       	st	Z, r18
    1cd2:	c8 01       	movw	r24, r16
    1cd4:	05 96       	adiw	r24, 0x05	; 5
    1cd6:	98 01       	movw	r18, r16
    1cd8:	2b 5f       	subi	r18, 0xFB	; 251
    1cda:	3f 4f       	sbci	r19, 0xFF	; 255
    1cdc:	f9 01       	movw	r30, r18
    1cde:	20 81       	ld	r18, Z
    1ce0:	22 2f       	mov	r18, r18
    1ce2:	30 e0       	ldi	r19, 0x00	; 0
    1ce4:	20 50       	subi	r18, 0x00	; 0
    1ce6:	3e 4f       	sbci	r19, 0xFE	; 254
    1ce8:	f9 01       	movw	r30, r18
    1cea:	20 81       	ld	r18, Z
    1cec:	fc 01       	movw	r30, r24
    1cee:	20 83       	st	Z, r18
    1cf0:	c8 01       	movw	r24, r16
    1cf2:	06 96       	adiw	r24, 0x06	; 6
    1cf4:	98 01       	movw	r18, r16
    1cf6:	2a 5f       	subi	r18, 0xFA	; 250
    1cf8:	3f 4f       	sbci	r19, 0xFF	; 255
    1cfa:	f9 01       	movw	r30, r18
    1cfc:	20 81       	ld	r18, Z
    1cfe:	22 2f       	mov	r18, r18
    1d00:	30 e0       	ldi	r19, 0x00	; 0
    1d02:	20 50       	subi	r18, 0x00	; 0
    1d04:	3e 4f       	sbci	r19, 0xFE	; 254
    1d06:	f9 01       	movw	r30, r18
    1d08:	20 81       	ld	r18, Z
    1d0a:	fc 01       	movw	r30, r24
    1d0c:	20 83       	st	Z, r18
    1d0e:	c8 01       	movw	r24, r16
    1d10:	07 96       	adiw	r24, 0x07	; 7
    1d12:	98 01       	movw	r18, r16
    1d14:	29 5f       	subi	r18, 0xF9	; 249
    1d16:	3f 4f       	sbci	r19, 0xFF	; 255
    1d18:	f9 01       	movw	r30, r18
    1d1a:	20 81       	ld	r18, Z
    1d1c:	22 2f       	mov	r18, r18
    1d1e:	30 e0       	ldi	r19, 0x00	; 0
    1d20:	20 50       	subi	r18, 0x00	; 0
    1d22:	3e 4f       	sbci	r19, 0xFE	; 254
    1d24:	f9 01       	movw	r30, r18
    1d26:	20 81       	ld	r18, Z
    1d28:	fc 01       	movw	r30, r24
    1d2a:	20 83       	st	Z, r18
    1d2c:	c8 01       	movw	r24, r16
    1d2e:	08 96       	adiw	r24, 0x08	; 8
    1d30:	98 01       	movw	r18, r16
    1d32:	28 5f       	subi	r18, 0xF8	; 248
    1d34:	3f 4f       	sbci	r19, 0xFF	; 255
    1d36:	f9 01       	movw	r30, r18
    1d38:	20 81       	ld	r18, Z
    1d3a:	22 2f       	mov	r18, r18
    1d3c:	30 e0       	ldi	r19, 0x00	; 0
    1d3e:	20 50       	subi	r18, 0x00	; 0
    1d40:	3e 4f       	sbci	r19, 0xFE	; 254
    1d42:	f9 01       	movw	r30, r18
    1d44:	20 81       	ld	r18, Z
    1d46:	fc 01       	movw	r30, r24
    1d48:	20 83       	st	Z, r18
    1d4a:	c8 01       	movw	r24, r16
    1d4c:	09 96       	adiw	r24, 0x09	; 9
    1d4e:	98 01       	movw	r18, r16
    1d50:	27 5f       	subi	r18, 0xF7	; 247
    1d52:	3f 4f       	sbci	r19, 0xFF	; 255
    1d54:	f9 01       	movw	r30, r18
    1d56:	20 81       	ld	r18, Z
    1d58:	22 2f       	mov	r18, r18
    1d5a:	30 e0       	ldi	r19, 0x00	; 0
    1d5c:	20 50       	subi	r18, 0x00	; 0
    1d5e:	3e 4f       	sbci	r19, 0xFE	; 254
    1d60:	f9 01       	movw	r30, r18
    1d62:	20 81       	ld	r18, Z
    1d64:	fc 01       	movw	r30, r24
    1d66:	20 83       	st	Z, r18
    1d68:	c8 01       	movw	r24, r16
    1d6a:	0a 96       	adiw	r24, 0x0a	; 10
    1d6c:	98 01       	movw	r18, r16
    1d6e:	26 5f       	subi	r18, 0xF6	; 246
    1d70:	3f 4f       	sbci	r19, 0xFF	; 255
    1d72:	f9 01       	movw	r30, r18
    1d74:	20 81       	ld	r18, Z
    1d76:	22 2f       	mov	r18, r18
    1d78:	30 e0       	ldi	r19, 0x00	; 0
    1d7a:	20 50       	subi	r18, 0x00	; 0
    1d7c:	3e 4f       	sbci	r19, 0xFE	; 254
    1d7e:	f9 01       	movw	r30, r18
    1d80:	20 81       	ld	r18, Z
    1d82:	fc 01       	movw	r30, r24
    1d84:	20 83       	st	Z, r18
    1d86:	c8 01       	movw	r24, r16
    1d88:	0b 96       	adiw	r24, 0x0b	; 11
    1d8a:	98 01       	movw	r18, r16
    1d8c:	25 5f       	subi	r18, 0xF5	; 245
    1d8e:	3f 4f       	sbci	r19, 0xFF	; 255
    1d90:	f9 01       	movw	r30, r18
    1d92:	20 81       	ld	r18, Z
    1d94:	22 2f       	mov	r18, r18
    1d96:	30 e0       	ldi	r19, 0x00	; 0
    1d98:	20 50       	subi	r18, 0x00	; 0
    1d9a:	3e 4f       	sbci	r19, 0xFE	; 254
    1d9c:	f9 01       	movw	r30, r18
    1d9e:	20 81       	ld	r18, Z
    1da0:	fc 01       	movw	r30, r24
    1da2:	20 83       	st	Z, r18
    1da4:	c8 01       	movw	r24, r16
    1da6:	0c 96       	adiw	r24, 0x0c	; 12
    1da8:	98 01       	movw	r18, r16
    1daa:	24 5f       	subi	r18, 0xF4	; 244
    1dac:	3f 4f       	sbci	r19, 0xFF	; 255
    1dae:	f9 01       	movw	r30, r18
    1db0:	20 81       	ld	r18, Z
    1db2:	22 2f       	mov	r18, r18
    1db4:	30 e0       	ldi	r19, 0x00	; 0
    1db6:	20 50       	subi	r18, 0x00	; 0
    1db8:	3e 4f       	sbci	r19, 0xFE	; 254
    1dba:	f9 01       	movw	r30, r18
    1dbc:	20 81       	ld	r18, Z
    1dbe:	fc 01       	movw	r30, r24
    1dc0:	20 83       	st	Z, r18
    1dc2:	c8 01       	movw	r24, r16
    1dc4:	0d 96       	adiw	r24, 0x0d	; 13
    1dc6:	98 01       	movw	r18, r16
    1dc8:	23 5f       	subi	r18, 0xF3	; 243
    1dca:	3f 4f       	sbci	r19, 0xFF	; 255
    1dcc:	f9 01       	movw	r30, r18
    1dce:	20 81       	ld	r18, Z
    1dd0:	22 2f       	mov	r18, r18
    1dd2:	30 e0       	ldi	r19, 0x00	; 0
    1dd4:	20 50       	subi	r18, 0x00	; 0
    1dd6:	3e 4f       	sbci	r19, 0xFE	; 254
    1dd8:	f9 01       	movw	r30, r18
    1dda:	20 81       	ld	r18, Z
    1ddc:	fc 01       	movw	r30, r24
    1dde:	20 83       	st	Z, r18
    1de0:	c8 01       	movw	r24, r16
    1de2:	0e 96       	adiw	r24, 0x0e	; 14
    1de4:	98 01       	movw	r18, r16
    1de6:	22 5f       	subi	r18, 0xF2	; 242
    1de8:	3f 4f       	sbci	r19, 0xFF	; 255
    1dea:	f9 01       	movw	r30, r18
    1dec:	20 81       	ld	r18, Z
    1dee:	22 2f       	mov	r18, r18
    1df0:	30 e0       	ldi	r19, 0x00	; 0
    1df2:	20 50       	subi	r18, 0x00	; 0
    1df4:	3e 4f       	sbci	r19, 0xFE	; 254
    1df6:	f9 01       	movw	r30, r18
    1df8:	20 81       	ld	r18, Z
    1dfa:	fc 01       	movw	r30, r24
    1dfc:	20 83       	st	Z, r18
    1dfe:	c8 01       	movw	r24, r16
    1e00:	0f 96       	adiw	r24, 0x0f	; 15
    1e02:	98 01       	movw	r18, r16
    1e04:	21 5f       	subi	r18, 0xF1	; 241
    1e06:	3f 4f       	sbci	r19, 0xFF	; 255
    1e08:	f9 01       	movw	r30, r18
    1e0a:	20 81       	ld	r18, Z
    1e0c:	22 2f       	mov	r18, r18
    1e0e:	30 e0       	ldi	r19, 0x00	; 0
    1e10:	20 50       	subi	r18, 0x00	; 0
    1e12:	3e 4f       	sbci	r19, 0xFE	; 254
    1e14:	f9 01       	movw	r30, r18
    1e16:	20 81       	ld	r18, Z
    1e18:	fc 01       	movw	r30, r24
    1e1a:	20 83       	st	Z, r18
    1e1c:	c8 01       	movw	r24, r16
    1e1e:	97 d9       	rcall	.-3282   	; 0x114e <shift_rows>
    1e20:	c7 01       	movw	r24, r14
    1e22:	7c 01       	movw	r14, r24
    1e24:	ff ef       	ldi	r31, 0xFF	; 255
    1e26:	ef 1a       	sub	r14, r31
    1e28:	ff 0a       	sbc	r15, r31
    1e2a:	fc 01       	movw	r30, r24
    1e2c:	80 81       	ld	r24, Z
    1e2e:	f8 01       	movw	r30, r16
    1e30:	90 81       	ld	r25, Z
    1e32:	89 27       	eor	r24, r25
    1e34:	f8 01       	movw	r30, r16
    1e36:	80 83       	st	Z, r24
    1e38:	c7 01       	movw	r24, r14
    1e3a:	7c 01       	movw	r14, r24
    1e3c:	ff ef       	ldi	r31, 0xFF	; 255
    1e3e:	ef 1a       	sub	r14, r31
    1e40:	ff 0a       	sbc	r15, r31
    1e42:	fc 01       	movw	r30, r24
    1e44:	40 81       	ld	r20, Z
    1e46:	c8 01       	movw	r24, r16
    1e48:	01 96       	adiw	r24, 0x01	; 1
    1e4a:	98 01       	movw	r18, r16
    1e4c:	2f 5f       	subi	r18, 0xFF	; 255
    1e4e:	3f 4f       	sbci	r19, 0xFF	; 255
    1e50:	f9 01       	movw	r30, r18
    1e52:	20 81       	ld	r18, Z
    1e54:	24 27       	eor	r18, r20
    1e56:	fc 01       	movw	r30, r24
    1e58:	20 83       	st	Z, r18
    1e5a:	c7 01       	movw	r24, r14
    1e5c:	7c 01       	movw	r14, r24
    1e5e:	ff ef       	ldi	r31, 0xFF	; 255
    1e60:	ef 1a       	sub	r14, r31
    1e62:	ff 0a       	sbc	r15, r31
    1e64:	fc 01       	movw	r30, r24
    1e66:	40 81       	ld	r20, Z
    1e68:	c8 01       	movw	r24, r16
    1e6a:	02 96       	adiw	r24, 0x02	; 2
    1e6c:	98 01       	movw	r18, r16
    1e6e:	2e 5f       	subi	r18, 0xFE	; 254
    1e70:	3f 4f       	sbci	r19, 0xFF	; 255
    1e72:	f9 01       	movw	r30, r18
    1e74:	20 81       	ld	r18, Z
    1e76:	24 27       	eor	r18, r20
    1e78:	fc 01       	movw	r30, r24
    1e7a:	20 83       	st	Z, r18
    1e7c:	c7 01       	movw	r24, r14
    1e7e:	7c 01       	movw	r14, r24
    1e80:	ff ef       	ldi	r31, 0xFF	; 255
    1e82:	ef 1a       	sub	r14, r31
    1e84:	ff 0a       	sbc	r15, r31
    1e86:	fc 01       	movw	r30, r24
    1e88:	40 81       	ld	r20, Z
    1e8a:	c8 01       	movw	r24, r16
    1e8c:	03 96       	adiw	r24, 0x03	; 3
    1e8e:	98 01       	movw	r18, r16
    1e90:	2d 5f       	subi	r18, 0xFD	; 253
    1e92:	3f 4f       	sbci	r19, 0xFF	; 255
    1e94:	f9 01       	movw	r30, r18
    1e96:	20 81       	ld	r18, Z
    1e98:	24 27       	eor	r18, r20
    1e9a:	fc 01       	movw	r30, r24
    1e9c:	20 83       	st	Z, r18
    1e9e:	c7 01       	movw	r24, r14
    1ea0:	7c 01       	movw	r14, r24
    1ea2:	ff ef       	ldi	r31, 0xFF	; 255
    1ea4:	ef 1a       	sub	r14, r31
    1ea6:	ff 0a       	sbc	r15, r31
    1ea8:	fc 01       	movw	r30, r24
    1eaa:	40 81       	ld	r20, Z
    1eac:	c8 01       	movw	r24, r16
    1eae:	04 96       	adiw	r24, 0x04	; 4
    1eb0:	98 01       	movw	r18, r16
    1eb2:	2c 5f       	subi	r18, 0xFC	; 252
    1eb4:	3f 4f       	sbci	r19, 0xFF	; 255
    1eb6:	f9 01       	movw	r30, r18
    1eb8:	20 81       	ld	r18, Z
    1eba:	24 27       	eor	r18, r20
    1ebc:	fc 01       	movw	r30, r24
    1ebe:	20 83       	st	Z, r18
    1ec0:	c7 01       	movw	r24, r14
    1ec2:	7c 01       	movw	r14, r24
    1ec4:	ff ef       	ldi	r31, 0xFF	; 255
    1ec6:	ef 1a       	sub	r14, r31
    1ec8:	ff 0a       	sbc	r15, r31
    1eca:	fc 01       	movw	r30, r24
    1ecc:	40 81       	ld	r20, Z
    1ece:	c8 01       	movw	r24, r16
    1ed0:	05 96       	adiw	r24, 0x05	; 5
    1ed2:	98 01       	movw	r18, r16
    1ed4:	2b 5f       	subi	r18, 0xFB	; 251
    1ed6:	3f 4f       	sbci	r19, 0xFF	; 255
    1ed8:	f9 01       	movw	r30, r18
    1eda:	20 81       	ld	r18, Z
    1edc:	24 27       	eor	r18, r20
    1ede:	fc 01       	movw	r30, r24
    1ee0:	20 83       	st	Z, r18
    1ee2:	c7 01       	movw	r24, r14
    1ee4:	7c 01       	movw	r14, r24
    1ee6:	ff ef       	ldi	r31, 0xFF	; 255
    1ee8:	ef 1a       	sub	r14, r31
    1eea:	ff 0a       	sbc	r15, r31
    1eec:	fc 01       	movw	r30, r24
    1eee:	40 81       	ld	r20, Z
    1ef0:	c8 01       	movw	r24, r16
    1ef2:	06 96       	adiw	r24, 0x06	; 6
    1ef4:	98 01       	movw	r18, r16
    1ef6:	2a 5f       	subi	r18, 0xFA	; 250
    1ef8:	3f 4f       	sbci	r19, 0xFF	; 255
    1efa:	f9 01       	movw	r30, r18
    1efc:	20 81       	ld	r18, Z
    1efe:	24 27       	eor	r18, r20
    1f00:	fc 01       	movw	r30, r24
    1f02:	20 83       	st	Z, r18
    1f04:	c7 01       	movw	r24, r14
    1f06:	7c 01       	movw	r14, r24
    1f08:	ff ef       	ldi	r31, 0xFF	; 255
    1f0a:	ef 1a       	sub	r14, r31
    1f0c:	ff 0a       	sbc	r15, r31
    1f0e:	fc 01       	movw	r30, r24
    1f10:	40 81       	ld	r20, Z
    1f12:	c8 01       	movw	r24, r16
    1f14:	07 96       	adiw	r24, 0x07	; 7
    1f16:	98 01       	movw	r18, r16
    1f18:	29 5f       	subi	r18, 0xF9	; 249
    1f1a:	3f 4f       	sbci	r19, 0xFF	; 255
    1f1c:	f9 01       	movw	r30, r18
    1f1e:	20 81       	ld	r18, Z
    1f20:	24 27       	eor	r18, r20
    1f22:	fc 01       	movw	r30, r24
    1f24:	20 83       	st	Z, r18
    1f26:	c7 01       	movw	r24, r14
    1f28:	7c 01       	movw	r14, r24
    1f2a:	ff ef       	ldi	r31, 0xFF	; 255
    1f2c:	ef 1a       	sub	r14, r31
    1f2e:	ff 0a       	sbc	r15, r31
    1f30:	fc 01       	movw	r30, r24
    1f32:	40 81       	ld	r20, Z
    1f34:	c8 01       	movw	r24, r16
    1f36:	08 96       	adiw	r24, 0x08	; 8
    1f38:	98 01       	movw	r18, r16
    1f3a:	28 5f       	subi	r18, 0xF8	; 248
    1f3c:	3f 4f       	sbci	r19, 0xFF	; 255
    1f3e:	f9 01       	movw	r30, r18
    1f40:	20 81       	ld	r18, Z
    1f42:	24 27       	eor	r18, r20
    1f44:	fc 01       	movw	r30, r24
    1f46:	20 83       	st	Z, r18
    1f48:	c7 01       	movw	r24, r14
    1f4a:	7c 01       	movw	r14, r24
    1f4c:	ff ef       	ldi	r31, 0xFF	; 255
    1f4e:	ef 1a       	sub	r14, r31
    1f50:	ff 0a       	sbc	r15, r31
    1f52:	fc 01       	movw	r30, r24
    1f54:	40 81       	ld	r20, Z
    1f56:	c8 01       	movw	r24, r16
    1f58:	09 96       	adiw	r24, 0x09	; 9
    1f5a:	98 01       	movw	r18, r16
    1f5c:	27 5f       	subi	r18, 0xF7	; 247
    1f5e:	3f 4f       	sbci	r19, 0xFF	; 255
    1f60:	f9 01       	movw	r30, r18
    1f62:	20 81       	ld	r18, Z
    1f64:	24 27       	eor	r18, r20
    1f66:	fc 01       	movw	r30, r24
    1f68:	20 83       	st	Z, r18
    1f6a:	c7 01       	movw	r24, r14
    1f6c:	7c 01       	movw	r14, r24
    1f6e:	ff ef       	ldi	r31, 0xFF	; 255
    1f70:	ef 1a       	sub	r14, r31
    1f72:	ff 0a       	sbc	r15, r31
    1f74:	fc 01       	movw	r30, r24
    1f76:	40 81       	ld	r20, Z
    1f78:	c8 01       	movw	r24, r16
    1f7a:	0a 96       	adiw	r24, 0x0a	; 10
    1f7c:	98 01       	movw	r18, r16
    1f7e:	26 5f       	subi	r18, 0xF6	; 246
    1f80:	3f 4f       	sbci	r19, 0xFF	; 255
    1f82:	f9 01       	movw	r30, r18
    1f84:	20 81       	ld	r18, Z
    1f86:	24 27       	eor	r18, r20
    1f88:	fc 01       	movw	r30, r24
    1f8a:	20 83       	st	Z, r18
    1f8c:	c7 01       	movw	r24, r14
    1f8e:	7c 01       	movw	r14, r24
    1f90:	ff ef       	ldi	r31, 0xFF	; 255
    1f92:	ef 1a       	sub	r14, r31
    1f94:	ff 0a       	sbc	r15, r31
    1f96:	fc 01       	movw	r30, r24
    1f98:	40 81       	ld	r20, Z
    1f9a:	c8 01       	movw	r24, r16
    1f9c:	0b 96       	adiw	r24, 0x0b	; 11
    1f9e:	98 01       	movw	r18, r16
    1fa0:	25 5f       	subi	r18, 0xF5	; 245
    1fa2:	3f 4f       	sbci	r19, 0xFF	; 255
    1fa4:	f9 01       	movw	r30, r18
    1fa6:	20 81       	ld	r18, Z
    1fa8:	24 27       	eor	r18, r20
    1faa:	fc 01       	movw	r30, r24
    1fac:	20 83       	st	Z, r18
    1fae:	c7 01       	movw	r24, r14
    1fb0:	7c 01       	movw	r14, r24
    1fb2:	ff ef       	ldi	r31, 0xFF	; 255
    1fb4:	ef 1a       	sub	r14, r31
    1fb6:	ff 0a       	sbc	r15, r31
    1fb8:	fc 01       	movw	r30, r24
    1fba:	40 81       	ld	r20, Z
    1fbc:	c8 01       	movw	r24, r16
    1fbe:	0c 96       	adiw	r24, 0x0c	; 12
    1fc0:	98 01       	movw	r18, r16
    1fc2:	24 5f       	subi	r18, 0xF4	; 244
    1fc4:	3f 4f       	sbci	r19, 0xFF	; 255
    1fc6:	f9 01       	movw	r30, r18
    1fc8:	20 81       	ld	r18, Z
    1fca:	24 27       	eor	r18, r20
    1fcc:	fc 01       	movw	r30, r24
    1fce:	20 83       	st	Z, r18
    1fd0:	c7 01       	movw	r24, r14
    1fd2:	7c 01       	movw	r14, r24
    1fd4:	ff ef       	ldi	r31, 0xFF	; 255
    1fd6:	ef 1a       	sub	r14, r31
    1fd8:	ff 0a       	sbc	r15, r31
    1fda:	fc 01       	movw	r30, r24
    1fdc:	40 81       	ld	r20, Z
    1fde:	c8 01       	movw	r24, r16
    1fe0:	0d 96       	adiw	r24, 0x0d	; 13
    1fe2:	98 01       	movw	r18, r16
    1fe4:	23 5f       	subi	r18, 0xF3	; 243
    1fe6:	3f 4f       	sbci	r19, 0xFF	; 255
    1fe8:	f9 01       	movw	r30, r18
    1fea:	20 81       	ld	r18, Z
    1fec:	24 27       	eor	r18, r20
    1fee:	fc 01       	movw	r30, r24
    1ff0:	20 83       	st	Z, r18
    1ff2:	c7 01       	movw	r24, r14
    1ff4:	7c 01       	movw	r14, r24
    1ff6:	ff ef       	ldi	r31, 0xFF	; 255
    1ff8:	ef 1a       	sub	r14, r31
    1ffa:	ff 0a       	sbc	r15, r31
    1ffc:	fc 01       	movw	r30, r24
    1ffe:	40 81       	ld	r20, Z
    2000:	c8 01       	movw	r24, r16
    2002:	0e 96       	adiw	r24, 0x0e	; 14
    2004:	98 01       	movw	r18, r16
    2006:	22 5f       	subi	r18, 0xF2	; 242
    2008:	3f 4f       	sbci	r19, 0xFF	; 255
    200a:	f9 01       	movw	r30, r18
    200c:	20 81       	ld	r18, Z
    200e:	24 27       	eor	r18, r20
    2010:	fc 01       	movw	r30, r24
    2012:	20 83       	st	Z, r18
    2014:	c7 01       	movw	r24, r14
    2016:	7c 01       	movw	r14, r24
    2018:	ff ef       	ldi	r31, 0xFF	; 255
    201a:	ef 1a       	sub	r14, r31
    201c:	ff 0a       	sbc	r15, r31
    201e:	fc 01       	movw	r30, r24
    2020:	40 81       	ld	r20, Z
    2022:	c8 01       	movw	r24, r16
    2024:	0f 96       	adiw	r24, 0x0f	; 15
    2026:	98 01       	movw	r18, r16
    2028:	21 5f       	subi	r18, 0xF1	; 241
    202a:	3f 4f       	sbci	r19, 0xFF	; 255
    202c:	f9 01       	movw	r30, r18
    202e:	20 81       	ld	r18, Z
    2030:	24 27       	eor	r18, r20
    2032:	fc 01       	movw	r30, r24
    2034:	20 83       	st	Z, r18
    2036:	00 00       	nop
    2038:	a1 96       	adiw	r28, 0x21	; 33
    203a:	0f b6       	in	r0, 0x3f	; 63
    203c:	f8 94       	cli
    203e:	de bf       	out	0x3e, r29	; 62
    2040:	0f be       	out	0x3f, r0	; 63
    2042:	cd bf       	out	0x3d, r28	; 61
    2044:	df 91       	pop	r29
    2046:	cf 91       	pop	r28
    2048:	1f 91       	pop	r17
    204a:	0f 91       	pop	r16
    204c:	ff 90       	pop	r15
    204e:	ef 90       	pop	r14
    2050:	df 90       	pop	r13
    2052:	08 95       	ret

00002054 <aes_key_schedule_128>:
    2054:	9f 92       	push	r9
    2056:	af 92       	push	r10
    2058:	bf 92       	push	r11
    205a:	cf 92       	push	r12
    205c:	df 92       	push	r13
    205e:	ef 92       	push	r14
    2060:	ff 92       	push	r15
    2062:	0f 93       	push	r16
    2064:	1f 93       	push	r17
    2066:	cf 93       	push	r28
    2068:	df 93       	push	r29
    206a:	cd b7       	in	r28, 0x3d	; 61
    206c:	de b7       	in	r29, 0x3e	; 62
    206e:	9c 01       	movw	r18, r24
    2070:	cb 01       	movw	r24, r22
    2072:	91 2c       	mov	r9, r1
    2074:	ac 01       	movw	r20, r24
    2076:	ca 01       	movw	r24, r20
    2078:	01 96       	adiw	r24, 0x01	; 1
    207a:	b9 01       	movw	r22, r18
    207c:	9b 01       	movw	r18, r22
    207e:	2f 5f       	subi	r18, 0xFF	; 255
    2080:	3f 4f       	sbci	r19, 0xFF	; 255
    2082:	fb 01       	movw	r30, r22
    2084:	60 81       	ld	r22, Z
    2086:	fa 01       	movw	r30, r20
    2088:	60 83       	st	Z, r22
    208a:	ac 01       	movw	r20, r24
    208c:	ca 01       	movw	r24, r20
    208e:	01 96       	adiw	r24, 0x01	; 1
    2090:	b9 01       	movw	r22, r18
    2092:	9b 01       	movw	r18, r22
    2094:	2f 5f       	subi	r18, 0xFF	; 255
    2096:	3f 4f       	sbci	r19, 0xFF	; 255
    2098:	fb 01       	movw	r30, r22
    209a:	60 81       	ld	r22, Z
    209c:	fa 01       	movw	r30, r20
    209e:	60 83       	st	Z, r22
    20a0:	ac 01       	movw	r20, r24
    20a2:	ca 01       	movw	r24, r20
    20a4:	01 96       	adiw	r24, 0x01	; 1
    20a6:	b9 01       	movw	r22, r18
    20a8:	9b 01       	movw	r18, r22
    20aa:	2f 5f       	subi	r18, 0xFF	; 255
    20ac:	3f 4f       	sbci	r19, 0xFF	; 255
    20ae:	fb 01       	movw	r30, r22
    20b0:	60 81       	ld	r22, Z
    20b2:	fa 01       	movw	r30, r20
    20b4:	60 83       	st	Z, r22
    20b6:	ac 01       	movw	r20, r24
    20b8:	ca 01       	movw	r24, r20
    20ba:	01 96       	adiw	r24, 0x01	; 1
    20bc:	b9 01       	movw	r22, r18
    20be:	9b 01       	movw	r18, r22
    20c0:	2f 5f       	subi	r18, 0xFF	; 255
    20c2:	3f 4f       	sbci	r19, 0xFF	; 255
    20c4:	fb 01       	movw	r30, r22
    20c6:	60 81       	ld	r22, Z
    20c8:	fa 01       	movw	r30, r20
    20ca:	60 83       	st	Z, r22
    20cc:	ac 01       	movw	r20, r24
    20ce:	ca 01       	movw	r24, r20
    20d0:	01 96       	adiw	r24, 0x01	; 1
    20d2:	b9 01       	movw	r22, r18
    20d4:	9b 01       	movw	r18, r22
    20d6:	2f 5f       	subi	r18, 0xFF	; 255
    20d8:	3f 4f       	sbci	r19, 0xFF	; 255
    20da:	fb 01       	movw	r30, r22
    20dc:	60 81       	ld	r22, Z
    20de:	fa 01       	movw	r30, r20
    20e0:	60 83       	st	Z, r22
    20e2:	ac 01       	movw	r20, r24
    20e4:	ca 01       	movw	r24, r20
    20e6:	01 96       	adiw	r24, 0x01	; 1
    20e8:	b9 01       	movw	r22, r18
    20ea:	9b 01       	movw	r18, r22
    20ec:	2f 5f       	subi	r18, 0xFF	; 255
    20ee:	3f 4f       	sbci	r19, 0xFF	; 255
    20f0:	fb 01       	movw	r30, r22
    20f2:	60 81       	ld	r22, Z
    20f4:	fa 01       	movw	r30, r20
    20f6:	60 83       	st	Z, r22
    20f8:	ac 01       	movw	r20, r24
    20fa:	ca 01       	movw	r24, r20
    20fc:	01 96       	adiw	r24, 0x01	; 1
    20fe:	b9 01       	movw	r22, r18
    2100:	9b 01       	movw	r18, r22
    2102:	2f 5f       	subi	r18, 0xFF	; 255
    2104:	3f 4f       	sbci	r19, 0xFF	; 255
    2106:	fb 01       	movw	r30, r22
    2108:	60 81       	ld	r22, Z
    210a:	fa 01       	movw	r30, r20
    210c:	60 83       	st	Z, r22
    210e:	ac 01       	movw	r20, r24
    2110:	ca 01       	movw	r24, r20
    2112:	01 96       	adiw	r24, 0x01	; 1
    2114:	b9 01       	movw	r22, r18
    2116:	9b 01       	movw	r18, r22
    2118:	2f 5f       	subi	r18, 0xFF	; 255
    211a:	3f 4f       	sbci	r19, 0xFF	; 255
    211c:	fb 01       	movw	r30, r22
    211e:	60 81       	ld	r22, Z
    2120:	fa 01       	movw	r30, r20
    2122:	60 83       	st	Z, r22
    2124:	ac 01       	movw	r20, r24
    2126:	ca 01       	movw	r24, r20
    2128:	01 96       	adiw	r24, 0x01	; 1
    212a:	b9 01       	movw	r22, r18
    212c:	9b 01       	movw	r18, r22
    212e:	2f 5f       	subi	r18, 0xFF	; 255
    2130:	3f 4f       	sbci	r19, 0xFF	; 255
    2132:	fb 01       	movw	r30, r22
    2134:	60 81       	ld	r22, Z
    2136:	fa 01       	movw	r30, r20
    2138:	60 83       	st	Z, r22
    213a:	ac 01       	movw	r20, r24
    213c:	ca 01       	movw	r24, r20
    213e:	01 96       	adiw	r24, 0x01	; 1
    2140:	b9 01       	movw	r22, r18
    2142:	9b 01       	movw	r18, r22
    2144:	2f 5f       	subi	r18, 0xFF	; 255
    2146:	3f 4f       	sbci	r19, 0xFF	; 255
    2148:	fb 01       	movw	r30, r22
    214a:	60 81       	ld	r22, Z
    214c:	fa 01       	movw	r30, r20
    214e:	60 83       	st	Z, r22
    2150:	ac 01       	movw	r20, r24
    2152:	ca 01       	movw	r24, r20
    2154:	01 96       	adiw	r24, 0x01	; 1
    2156:	b9 01       	movw	r22, r18
    2158:	9b 01       	movw	r18, r22
    215a:	2f 5f       	subi	r18, 0xFF	; 255
    215c:	3f 4f       	sbci	r19, 0xFF	; 255
    215e:	fb 01       	movw	r30, r22
    2160:	60 81       	ld	r22, Z
    2162:	fa 01       	movw	r30, r20
    2164:	60 83       	st	Z, r22
    2166:	ac 01       	movw	r20, r24
    2168:	ca 01       	movw	r24, r20
    216a:	01 96       	adiw	r24, 0x01	; 1
    216c:	b9 01       	movw	r22, r18
    216e:	9b 01       	movw	r18, r22
    2170:	2f 5f       	subi	r18, 0xFF	; 255
    2172:	3f 4f       	sbci	r19, 0xFF	; 255
    2174:	fb 01       	movw	r30, r22
    2176:	60 81       	ld	r22, Z
    2178:	fa 01       	movw	r30, r20
    217a:	60 83       	st	Z, r22
    217c:	ac 01       	movw	r20, r24
    217e:	ca 01       	movw	r24, r20
    2180:	01 96       	adiw	r24, 0x01	; 1
    2182:	b9 01       	movw	r22, r18
    2184:	9b 01       	movw	r18, r22
    2186:	2f 5f       	subi	r18, 0xFF	; 255
    2188:	3f 4f       	sbci	r19, 0xFF	; 255
    218a:	fb 01       	movw	r30, r22
    218c:	60 81       	ld	r22, Z
    218e:	fa 01       	movw	r30, r20
    2190:	60 83       	st	Z, r22
    2192:	ac 01       	movw	r20, r24
    2194:	ca 01       	movw	r24, r20
    2196:	01 96       	adiw	r24, 0x01	; 1
    2198:	b9 01       	movw	r22, r18
    219a:	9b 01       	movw	r18, r22
    219c:	2f 5f       	subi	r18, 0xFF	; 255
    219e:	3f 4f       	sbci	r19, 0xFF	; 255
    21a0:	fb 01       	movw	r30, r22
    21a2:	60 81       	ld	r22, Z
    21a4:	fa 01       	movw	r30, r20
    21a6:	60 83       	st	Z, r22
    21a8:	ac 01       	movw	r20, r24
    21aa:	ca 01       	movw	r24, r20
    21ac:	01 96       	adiw	r24, 0x01	; 1
    21ae:	b9 01       	movw	r22, r18
    21b0:	9b 01       	movw	r18, r22
    21b2:	2f 5f       	subi	r18, 0xFF	; 255
    21b4:	3f 4f       	sbci	r19, 0xFF	; 255
    21b6:	fb 01       	movw	r30, r22
    21b8:	60 81       	ld	r22, Z
    21ba:	fa 01       	movw	r30, r20
    21bc:	60 83       	st	Z, r22
    21be:	ac 01       	movw	r20, r24
    21c0:	ca 01       	movw	r24, r20
    21c2:	01 96       	adiw	r24, 0x01	; 1
    21c4:	b9 01       	movw	r22, r18
    21c6:	9b 01       	movw	r18, r22
    21c8:	2f 5f       	subi	r18, 0xFF	; 255
    21ca:	3f 4f       	sbci	r19, 0xFF	; 255
    21cc:	fb 01       	movw	r30, r22
    21ce:	20 81       	ld	r18, Z
    21d0:	fa 01       	movw	r30, r20
    21d2:	20 83       	st	Z, r18
    21d4:	7c 01       	movw	r14, r24
    21d6:	f4 e0       	ldi	r31, 0x04	; 4
    21d8:	ef 1a       	sub	r14, r31
    21da:	f1 08       	sbc	r15, r1
    21dc:	97 01       	movw	r18, r14
    21de:	79 01       	movw	r14, r18
    21e0:	4f ef       	ldi	r20, 0xFF	; 255
    21e2:	e4 1a       	sub	r14, r20
    21e4:	f4 0a       	sbc	r15, r20
    21e6:	f9 01       	movw	r30, r18
    21e8:	20 81       	ld	r18, Z
    21ea:	22 2f       	mov	r18, r18
    21ec:	30 e0       	ldi	r19, 0x00	; 0
    21ee:	20 50       	subi	r18, 0x00	; 0
    21f0:	3e 4f       	sbci	r19, 0xFE	; 254
    21f2:	f9 01       	movw	r30, r18
    21f4:	20 81       	ld	r18, Z
    21f6:	d2 2e       	mov	r13, r18
    21f8:	97 01       	movw	r18, r14
    21fa:	79 01       	movw	r14, r18
    21fc:	ff ef       	ldi	r31, 0xFF	; 255
    21fe:	ef 1a       	sub	r14, r31
    2200:	ff 0a       	sbc	r15, r31
    2202:	f9 01       	movw	r30, r18
    2204:	20 81       	ld	r18, Z
    2206:	22 2f       	mov	r18, r18
    2208:	30 e0       	ldi	r19, 0x00	; 0
    220a:	20 50       	subi	r18, 0x00	; 0
    220c:	3e 4f       	sbci	r19, 0xFE	; 254
    220e:	f9 01       	movw	r30, r18
    2210:	20 81       	ld	r18, Z
    2212:	a2 2e       	mov	r10, r18
    2214:	97 01       	movw	r18, r14
    2216:	79 01       	movw	r14, r18
    2218:	ff ef       	ldi	r31, 0xFF	; 255
    221a:	ef 1a       	sub	r14, r31
    221c:	ff 0a       	sbc	r15, r31
    221e:	f9 01       	movw	r30, r18
    2220:	20 81       	ld	r18, Z
    2222:	22 2f       	mov	r18, r18
    2224:	30 e0       	ldi	r19, 0x00	; 0
    2226:	20 50       	subi	r18, 0x00	; 0
    2228:	3e 4f       	sbci	r19, 0xFE	; 254
    222a:	f9 01       	movw	r30, r18
    222c:	20 81       	ld	r18, Z
    222e:	b2 2e       	mov	r11, r18
    2230:	97 01       	movw	r18, r14
    2232:	79 01       	movw	r14, r18
    2234:	ff ef       	ldi	r31, 0xFF	; 255
    2236:	ef 1a       	sub	r14, r31
    2238:	ff 0a       	sbc	r15, r31
    223a:	f9 01       	movw	r30, r18
    223c:	20 81       	ld	r18, Z
    223e:	22 2f       	mov	r18, r18
    2240:	30 e0       	ldi	r19, 0x00	; 0
    2242:	20 50       	subi	r18, 0x00	; 0
    2244:	3e 4f       	sbci	r19, 0xFE	; 254
    2246:	f9 01       	movw	r30, r18
    2248:	20 81       	ld	r18, Z
    224a:	c2 2e       	mov	r12, r18
    224c:	4a 2d       	mov	r20, r10
    224e:	29 2d       	mov	r18, r9
    2250:	30 e0       	ldi	r19, 0x00	; 0
    2252:	20 50       	subi	r18, 0x00	; 0
    2254:	3d 4f       	sbci	r19, 0xFD	; 253
    2256:	f9 01       	movw	r30, r18
    2258:	20 81       	ld	r18, Z
    225a:	24 27       	eor	r18, r20
    225c:	a2 2e       	mov	r10, r18
    225e:	8c 01       	movw	r16, r24
    2260:	00 51       	subi	r16, 0x10	; 16
    2262:	11 09       	sbc	r17, r1
    2264:	9c 01       	movw	r18, r24
    2266:	c9 01       	movw	r24, r18
    2268:	01 96       	adiw	r24, 0x01	; 1
    226a:	6a 2d       	mov	r22, r10
    226c:	a8 01       	movw	r20, r16
    226e:	8a 01       	movw	r16, r20
    2270:	0f 5f       	subi	r16, 0xFF	; 255
    2272:	1f 4f       	sbci	r17, 0xFF	; 255
    2274:	fa 01       	movw	r30, r20
    2276:	40 81       	ld	r20, Z
    2278:	46 27       	eor	r20, r22
    227a:	f9 01       	movw	r30, r18
    227c:	40 83       	st	Z, r20
    227e:	9c 01       	movw	r18, r24
    2280:	c9 01       	movw	r24, r18
    2282:	01 96       	adiw	r24, 0x01	; 1
    2284:	6b 2d       	mov	r22, r11
    2286:	a8 01       	movw	r20, r16
    2288:	8a 01       	movw	r16, r20
    228a:	0f 5f       	subi	r16, 0xFF	; 255
    228c:	1f 4f       	sbci	r17, 0xFF	; 255
    228e:	fa 01       	movw	r30, r20
    2290:	40 81       	ld	r20, Z
    2292:	46 27       	eor	r20, r22
    2294:	f9 01       	movw	r30, r18
    2296:	40 83       	st	Z, r20
    2298:	9c 01       	movw	r18, r24
    229a:	c9 01       	movw	r24, r18
    229c:	01 96       	adiw	r24, 0x01	; 1
    229e:	6c 2d       	mov	r22, r12
    22a0:	a8 01       	movw	r20, r16
    22a2:	8a 01       	movw	r16, r20
    22a4:	0f 5f       	subi	r16, 0xFF	; 255
    22a6:	1f 4f       	sbci	r17, 0xFF	; 255
    22a8:	fa 01       	movw	r30, r20
    22aa:	40 81       	ld	r20, Z
    22ac:	46 27       	eor	r20, r22
    22ae:	f9 01       	movw	r30, r18
    22b0:	40 83       	st	Z, r20
    22b2:	9c 01       	movw	r18, r24
    22b4:	c9 01       	movw	r24, r18
    22b6:	01 96       	adiw	r24, 0x01	; 1
    22b8:	6d 2d       	mov	r22, r13
    22ba:	a8 01       	movw	r20, r16
    22bc:	8a 01       	movw	r16, r20
    22be:	0f 5f       	subi	r16, 0xFF	; 255
    22c0:	1f 4f       	sbci	r17, 0xFF	; 255
    22c2:	fa 01       	movw	r30, r20
    22c4:	40 81       	ld	r20, Z
    22c6:	46 27       	eor	r20, r22
    22c8:	f9 01       	movw	r30, r18
    22ca:	40 83       	st	Z, r20
    22cc:	9c 01       	movw	r18, r24
    22ce:	c9 01       	movw	r24, r18
    22d0:	01 96       	adiw	r24, 0x01	; 1
    22d2:	a7 01       	movw	r20, r14
    22d4:	7a 01       	movw	r14, r20
    22d6:	ff ef       	ldi	r31, 0xFF	; 255
    22d8:	ef 1a       	sub	r14, r31
    22da:	ff 0a       	sbc	r15, r31
    22dc:	fa 01       	movw	r30, r20
    22de:	60 81       	ld	r22, Z
    22e0:	a8 01       	movw	r20, r16
    22e2:	8a 01       	movw	r16, r20
    22e4:	0f 5f       	subi	r16, 0xFF	; 255
    22e6:	1f 4f       	sbci	r17, 0xFF	; 255
    22e8:	fa 01       	movw	r30, r20
    22ea:	40 81       	ld	r20, Z
    22ec:	46 27       	eor	r20, r22
    22ee:	f9 01       	movw	r30, r18
    22f0:	40 83       	st	Z, r20
    22f2:	9c 01       	movw	r18, r24
    22f4:	c9 01       	movw	r24, r18
    22f6:	01 96       	adiw	r24, 0x01	; 1
    22f8:	a7 01       	movw	r20, r14
    22fa:	7a 01       	movw	r14, r20
    22fc:	ff ef       	ldi	r31, 0xFF	; 255
    22fe:	ef 1a       	sub	r14, r31
    2300:	ff 0a       	sbc	r15, r31
    2302:	fa 01       	movw	r30, r20
    2304:	60 81       	ld	r22, Z
    2306:	a8 01       	movw	r20, r16
    2308:	8a 01       	movw	r16, r20
    230a:	0f 5f       	subi	r16, 0xFF	; 255
    230c:	1f 4f       	sbci	r17, 0xFF	; 255
    230e:	fa 01       	movw	r30, r20
    2310:	40 81       	ld	r20, Z
    2312:	46 27       	eor	r20, r22
    2314:	f9 01       	movw	r30, r18
    2316:	40 83       	st	Z, r20
    2318:	9c 01       	movw	r18, r24
    231a:	c9 01       	movw	r24, r18
    231c:	01 96       	adiw	r24, 0x01	; 1
    231e:	a7 01       	movw	r20, r14
    2320:	7a 01       	movw	r14, r20
    2322:	ff ef       	ldi	r31, 0xFF	; 255
    2324:	ef 1a       	sub	r14, r31
    2326:	ff 0a       	sbc	r15, r31
    2328:	fa 01       	movw	r30, r20
    232a:	60 81       	ld	r22, Z
    232c:	a8 01       	movw	r20, r16
    232e:	8a 01       	movw	r16, r20
    2330:	0f 5f       	subi	r16, 0xFF	; 255
    2332:	1f 4f       	sbci	r17, 0xFF	; 255
    2334:	fa 01       	movw	r30, r20
    2336:	40 81       	ld	r20, Z
    2338:	46 27       	eor	r20, r22
    233a:	f9 01       	movw	r30, r18
    233c:	40 83       	st	Z, r20
    233e:	9c 01       	movw	r18, r24
    2340:	c9 01       	movw	r24, r18
    2342:	01 96       	adiw	r24, 0x01	; 1
    2344:	a7 01       	movw	r20, r14
    2346:	7a 01       	movw	r14, r20
    2348:	ff ef       	ldi	r31, 0xFF	; 255
    234a:	ef 1a       	sub	r14, r31
    234c:	ff 0a       	sbc	r15, r31
    234e:	fa 01       	movw	r30, r20
    2350:	60 81       	ld	r22, Z
    2352:	a8 01       	movw	r20, r16
    2354:	8a 01       	movw	r16, r20
    2356:	0f 5f       	subi	r16, 0xFF	; 255
    2358:	1f 4f       	sbci	r17, 0xFF	; 255
    235a:	fa 01       	movw	r30, r20
    235c:	40 81       	ld	r20, Z
    235e:	46 27       	eor	r20, r22
    2360:	f9 01       	movw	r30, r18
    2362:	40 83       	st	Z, r20
    2364:	9c 01       	movw	r18, r24
    2366:	c9 01       	movw	r24, r18
    2368:	01 96       	adiw	r24, 0x01	; 1
    236a:	a7 01       	movw	r20, r14
    236c:	7a 01       	movw	r14, r20
    236e:	ff ef       	ldi	r31, 0xFF	; 255
    2370:	ef 1a       	sub	r14, r31
    2372:	ff 0a       	sbc	r15, r31
    2374:	fa 01       	movw	r30, r20
    2376:	60 81       	ld	r22, Z
    2378:	a8 01       	movw	r20, r16
    237a:	8a 01       	movw	r16, r20
    237c:	0f 5f       	subi	r16, 0xFF	; 255
    237e:	1f 4f       	sbci	r17, 0xFF	; 255
    2380:	fa 01       	movw	r30, r20
    2382:	40 81       	ld	r20, Z
    2384:	46 27       	eor	r20, r22
    2386:	f9 01       	movw	r30, r18
    2388:	40 83       	st	Z, r20
    238a:	9c 01       	movw	r18, r24
    238c:	c9 01       	movw	r24, r18
    238e:	01 96       	adiw	r24, 0x01	; 1
    2390:	a7 01       	movw	r20, r14
    2392:	7a 01       	movw	r14, r20
    2394:	ff ef       	ldi	r31, 0xFF	; 255
    2396:	ef 1a       	sub	r14, r31
    2398:	ff 0a       	sbc	r15, r31
    239a:	fa 01       	movw	r30, r20
    239c:	60 81       	ld	r22, Z
    239e:	a8 01       	movw	r20, r16
    23a0:	8a 01       	movw	r16, r20
    23a2:	0f 5f       	subi	r16, 0xFF	; 255
    23a4:	1f 4f       	sbci	r17, 0xFF	; 255
    23a6:	fa 01       	movw	r30, r20
    23a8:	40 81       	ld	r20, Z
    23aa:	46 27       	eor	r20, r22
    23ac:	f9 01       	movw	r30, r18
    23ae:	40 83       	st	Z, r20
    23b0:	9c 01       	movw	r18, r24
    23b2:	c9 01       	movw	r24, r18
    23b4:	01 96       	adiw	r24, 0x01	; 1
    23b6:	a7 01       	movw	r20, r14
    23b8:	7a 01       	movw	r14, r20
    23ba:	ff ef       	ldi	r31, 0xFF	; 255
    23bc:	ef 1a       	sub	r14, r31
    23be:	ff 0a       	sbc	r15, r31
    23c0:	fa 01       	movw	r30, r20
    23c2:	60 81       	ld	r22, Z
    23c4:	a8 01       	movw	r20, r16
    23c6:	8a 01       	movw	r16, r20
    23c8:	0f 5f       	subi	r16, 0xFF	; 255
    23ca:	1f 4f       	sbci	r17, 0xFF	; 255
    23cc:	fa 01       	movw	r30, r20
    23ce:	40 81       	ld	r20, Z
    23d0:	46 27       	eor	r20, r22
    23d2:	f9 01       	movw	r30, r18
    23d4:	40 83       	st	Z, r20
    23d6:	9c 01       	movw	r18, r24
    23d8:	c9 01       	movw	r24, r18
    23da:	01 96       	adiw	r24, 0x01	; 1
    23dc:	a7 01       	movw	r20, r14
    23de:	7a 01       	movw	r14, r20
    23e0:	ff ef       	ldi	r31, 0xFF	; 255
    23e2:	ef 1a       	sub	r14, r31
    23e4:	ff 0a       	sbc	r15, r31
    23e6:	fa 01       	movw	r30, r20
    23e8:	60 81       	ld	r22, Z
    23ea:	a8 01       	movw	r20, r16
    23ec:	8a 01       	movw	r16, r20
    23ee:	0f 5f       	subi	r16, 0xFF	; 255
    23f0:	1f 4f       	sbci	r17, 0xFF	; 255
    23f2:	fa 01       	movw	r30, r20
    23f4:	40 81       	ld	r20, Z
    23f6:	46 27       	eor	r20, r22
    23f8:	f9 01       	movw	r30, r18
    23fa:	40 83       	st	Z, r20
    23fc:	9c 01       	movw	r18, r24
    23fe:	c9 01       	movw	r24, r18
    2400:	01 96       	adiw	r24, 0x01	; 1
    2402:	a7 01       	movw	r20, r14
    2404:	7a 01       	movw	r14, r20
    2406:	ff ef       	ldi	r31, 0xFF	; 255
    2408:	ef 1a       	sub	r14, r31
    240a:	ff 0a       	sbc	r15, r31
    240c:	fa 01       	movw	r30, r20
    240e:	60 81       	ld	r22, Z
    2410:	a8 01       	movw	r20, r16
    2412:	8a 01       	movw	r16, r20
    2414:	0f 5f       	subi	r16, 0xFF	; 255
    2416:	1f 4f       	sbci	r17, 0xFF	; 255
    2418:	fa 01       	movw	r30, r20
    241a:	40 81       	ld	r20, Z
    241c:	46 27       	eor	r20, r22
    241e:	f9 01       	movw	r30, r18
    2420:	40 83       	st	Z, r20
    2422:	9c 01       	movw	r18, r24
    2424:	c9 01       	movw	r24, r18
    2426:	01 96       	adiw	r24, 0x01	; 1
    2428:	a7 01       	movw	r20, r14
    242a:	7a 01       	movw	r14, r20
    242c:	ff ef       	ldi	r31, 0xFF	; 255
    242e:	ef 1a       	sub	r14, r31
    2430:	ff 0a       	sbc	r15, r31
    2432:	fa 01       	movw	r30, r20
    2434:	60 81       	ld	r22, Z
    2436:	a8 01       	movw	r20, r16
    2438:	8a 01       	movw	r16, r20
    243a:	0f 5f       	subi	r16, 0xFF	; 255
    243c:	1f 4f       	sbci	r17, 0xFF	; 255
    243e:	fa 01       	movw	r30, r20
    2440:	40 81       	ld	r20, Z
    2442:	46 27       	eor	r20, r22
    2444:	f9 01       	movw	r30, r18
    2446:	40 83       	st	Z, r20
    2448:	9c 01       	movw	r18, r24
    244a:	c9 01       	movw	r24, r18
    244c:	01 96       	adiw	r24, 0x01	; 1
    244e:	a7 01       	movw	r20, r14
    2450:	7a 01       	movw	r14, r20
    2452:	ff ef       	ldi	r31, 0xFF	; 255
    2454:	ef 1a       	sub	r14, r31
    2456:	ff 0a       	sbc	r15, r31
    2458:	fa 01       	movw	r30, r20
    245a:	60 81       	ld	r22, Z
    245c:	a8 01       	movw	r20, r16
    245e:	8a 01       	movw	r16, r20
    2460:	0f 5f       	subi	r16, 0xFF	; 255
    2462:	1f 4f       	sbci	r17, 0xFF	; 255
    2464:	fa 01       	movw	r30, r20
    2466:	40 81       	ld	r20, Z
    2468:	46 27       	eor	r20, r22
    246a:	f9 01       	movw	r30, r18
    246c:	40 83       	st	Z, r20
    246e:	9c 01       	movw	r18, r24
    2470:	c9 01       	movw	r24, r18
    2472:	01 96       	adiw	r24, 0x01	; 1
    2474:	a7 01       	movw	r20, r14
    2476:	7a 01       	movw	r14, r20
    2478:	ff ef       	ldi	r31, 0xFF	; 255
    247a:	ef 1a       	sub	r14, r31
    247c:	ff 0a       	sbc	r15, r31
    247e:	fa 01       	movw	r30, r20
    2480:	60 81       	ld	r22, Z
    2482:	a8 01       	movw	r20, r16
    2484:	8a 01       	movw	r16, r20
    2486:	0f 5f       	subi	r16, 0xFF	; 255
    2488:	1f 4f       	sbci	r17, 0xFF	; 255
    248a:	fa 01       	movw	r30, r20
    248c:	40 81       	ld	r20, Z
    248e:	46 27       	eor	r20, r22
    2490:	f9 01       	movw	r30, r18
    2492:	40 83       	st	Z, r20
    2494:	97 01       	movw	r18, r14
    2496:	79 01       	movw	r14, r18
    2498:	ff ef       	ldi	r31, 0xFF	; 255
    249a:	ef 1a       	sub	r14, r31
    249c:	ff 0a       	sbc	r15, r31
    249e:	f9 01       	movw	r30, r18
    24a0:	20 81       	ld	r18, Z
    24a2:	22 2f       	mov	r18, r18
    24a4:	30 e0       	ldi	r19, 0x00	; 0
    24a6:	20 50       	subi	r18, 0x00	; 0
    24a8:	3e 4f       	sbci	r19, 0xFE	; 254
    24aa:	f9 01       	movw	r30, r18
    24ac:	20 81       	ld	r18, Z
    24ae:	d2 2e       	mov	r13, r18
    24b0:	97 01       	movw	r18, r14
    24b2:	79 01       	movw	r14, r18
    24b4:	ff ef       	ldi	r31, 0xFF	; 255
    24b6:	ef 1a       	sub	r14, r31
    24b8:	ff 0a       	sbc	r15, r31
    24ba:	f9 01       	movw	r30, r18
    24bc:	20 81       	ld	r18, Z
    24be:	22 2f       	mov	r18, r18
    24c0:	30 e0       	ldi	r19, 0x00	; 0
    24c2:	20 50       	subi	r18, 0x00	; 0
    24c4:	3e 4f       	sbci	r19, 0xFE	; 254
    24c6:	f9 01       	movw	r30, r18
    24c8:	20 81       	ld	r18, Z
    24ca:	a2 2e       	mov	r10, r18
    24cc:	97 01       	movw	r18, r14
    24ce:	79 01       	movw	r14, r18
    24d0:	ff ef       	ldi	r31, 0xFF	; 255
    24d2:	ef 1a       	sub	r14, r31
    24d4:	ff 0a       	sbc	r15, r31
    24d6:	f9 01       	movw	r30, r18
    24d8:	20 81       	ld	r18, Z
    24da:	22 2f       	mov	r18, r18
    24dc:	30 e0       	ldi	r19, 0x00	; 0
    24de:	20 50       	subi	r18, 0x00	; 0
    24e0:	3e 4f       	sbci	r19, 0xFE	; 254
    24e2:	f9 01       	movw	r30, r18
    24e4:	20 81       	ld	r18, Z
    24e6:	b2 2e       	mov	r11, r18
    24e8:	97 01       	movw	r18, r14
    24ea:	79 01       	movw	r14, r18
    24ec:	ff ef       	ldi	r31, 0xFF	; 255
    24ee:	ef 1a       	sub	r14, r31
    24f0:	ff 0a       	sbc	r15, r31
    24f2:	f9 01       	movw	r30, r18
    24f4:	20 81       	ld	r18, Z
    24f6:	22 2f       	mov	r18, r18
    24f8:	30 e0       	ldi	r19, 0x00	; 0
    24fa:	20 50       	subi	r18, 0x00	; 0
    24fc:	3e 4f       	sbci	r19, 0xFE	; 254
    24fe:	f9 01       	movw	r30, r18
    2500:	20 81       	ld	r18, Z
    2502:	c2 2e       	mov	r12, r18
    2504:	4a 2d       	mov	r20, r10
    2506:	29 2d       	mov	r18, r9
    2508:	30 e0       	ldi	r19, 0x00	; 0
    250a:	20 50       	subi	r18, 0x00	; 0
    250c:	3d 4f       	sbci	r19, 0xFD	; 253
    250e:	f9 01       	movw	r30, r18
    2510:	20 81       	ld	r18, Z
    2512:	24 27       	eor	r18, r20
    2514:	a2 2e       	mov	r10, r18
    2516:	8c 01       	movw	r16, r24
    2518:	00 51       	subi	r16, 0x10	; 16
    251a:	11 09       	sbc	r17, r1
    251c:	9c 01       	movw	r18, r24
    251e:	c9 01       	movw	r24, r18
    2520:	01 96       	adiw	r24, 0x01	; 1
    2522:	6a 2d       	mov	r22, r10
    2524:	a8 01       	movw	r20, r16
    2526:	8a 01       	movw	r16, r20
    2528:	0f 5f       	subi	r16, 0xFF	; 255
    252a:	1f 4f       	sbci	r17, 0xFF	; 255
    252c:	fa 01       	movw	r30, r20
    252e:	40 81       	ld	r20, Z
    2530:	46 27       	eor	r20, r22
    2532:	f9 01       	movw	r30, r18
    2534:	40 83       	st	Z, r20
    2536:	9c 01       	movw	r18, r24
    2538:	c9 01       	movw	r24, r18
    253a:	01 96       	adiw	r24, 0x01	; 1
    253c:	6b 2d       	mov	r22, r11
    253e:	a8 01       	movw	r20, r16
    2540:	8a 01       	movw	r16, r20
    2542:	0f 5f       	subi	r16, 0xFF	; 255
    2544:	1f 4f       	sbci	r17, 0xFF	; 255
    2546:	fa 01       	movw	r30, r20
    2548:	40 81       	ld	r20, Z
    254a:	46 27       	eor	r20, r22
    254c:	f9 01       	movw	r30, r18
    254e:	40 83       	st	Z, r20
    2550:	9c 01       	movw	r18, r24
    2552:	c9 01       	movw	r24, r18
    2554:	01 96       	adiw	r24, 0x01	; 1
    2556:	6c 2d       	mov	r22, r12
    2558:	a8 01       	movw	r20, r16
    255a:	8a 01       	movw	r16, r20
    255c:	0f 5f       	subi	r16, 0xFF	; 255
    255e:	1f 4f       	sbci	r17, 0xFF	; 255
    2560:	fa 01       	movw	r30, r20
    2562:	40 81       	ld	r20, Z
    2564:	46 27       	eor	r20, r22
    2566:	f9 01       	movw	r30, r18
    2568:	40 83       	st	Z, r20
    256a:	9c 01       	movw	r18, r24
    256c:	c9 01       	movw	r24, r18
    256e:	01 96       	adiw	r24, 0x01	; 1
    2570:	6d 2d       	mov	r22, r13
    2572:	a8 01       	movw	r20, r16
    2574:	8a 01       	movw	r16, r20
    2576:	0f 5f       	subi	r16, 0xFF	; 255
    2578:	1f 4f       	sbci	r17, 0xFF	; 255
    257a:	fa 01       	movw	r30, r20
    257c:	40 81       	ld	r20, Z
    257e:	46 27       	eor	r20, r22
    2580:	f9 01       	movw	r30, r18
    2582:	40 83       	st	Z, r20
    2584:	9c 01       	movw	r18, r24
    2586:	c9 01       	movw	r24, r18
    2588:	01 96       	adiw	r24, 0x01	; 1
    258a:	a7 01       	movw	r20, r14
    258c:	7a 01       	movw	r14, r20
    258e:	ff ef       	ldi	r31, 0xFF	; 255
    2590:	ef 1a       	sub	r14, r31
    2592:	ff 0a       	sbc	r15, r31
    2594:	fa 01       	movw	r30, r20
    2596:	60 81       	ld	r22, Z
    2598:	a8 01       	movw	r20, r16
    259a:	8a 01       	movw	r16, r20
    259c:	0f 5f       	subi	r16, 0xFF	; 255
    259e:	1f 4f       	sbci	r17, 0xFF	; 255
    25a0:	fa 01       	movw	r30, r20
    25a2:	40 81       	ld	r20, Z
    25a4:	46 27       	eor	r20, r22
    25a6:	f9 01       	movw	r30, r18
    25a8:	40 83       	st	Z, r20
    25aa:	9c 01       	movw	r18, r24
    25ac:	c9 01       	movw	r24, r18
    25ae:	01 96       	adiw	r24, 0x01	; 1
    25b0:	a7 01       	movw	r20, r14
    25b2:	7a 01       	movw	r14, r20
    25b4:	ff ef       	ldi	r31, 0xFF	; 255
    25b6:	ef 1a       	sub	r14, r31
    25b8:	ff 0a       	sbc	r15, r31
    25ba:	fa 01       	movw	r30, r20
    25bc:	60 81       	ld	r22, Z
    25be:	a8 01       	movw	r20, r16
    25c0:	8a 01       	movw	r16, r20
    25c2:	0f 5f       	subi	r16, 0xFF	; 255
    25c4:	1f 4f       	sbci	r17, 0xFF	; 255
    25c6:	fa 01       	movw	r30, r20
    25c8:	40 81       	ld	r20, Z
    25ca:	46 27       	eor	r20, r22
    25cc:	f9 01       	movw	r30, r18
    25ce:	40 83       	st	Z, r20
    25d0:	9c 01       	movw	r18, r24
    25d2:	c9 01       	movw	r24, r18
    25d4:	01 96       	adiw	r24, 0x01	; 1
    25d6:	a7 01       	movw	r20, r14
    25d8:	7a 01       	movw	r14, r20
    25da:	ff ef       	ldi	r31, 0xFF	; 255
    25dc:	ef 1a       	sub	r14, r31
    25de:	ff 0a       	sbc	r15, r31
    25e0:	fa 01       	movw	r30, r20
    25e2:	60 81       	ld	r22, Z
    25e4:	a8 01       	movw	r20, r16
    25e6:	8a 01       	movw	r16, r20
    25e8:	0f 5f       	subi	r16, 0xFF	; 255
    25ea:	1f 4f       	sbci	r17, 0xFF	; 255
    25ec:	fa 01       	movw	r30, r20
    25ee:	40 81       	ld	r20, Z
    25f0:	46 27       	eor	r20, r22
    25f2:	f9 01       	movw	r30, r18
    25f4:	40 83       	st	Z, r20
    25f6:	9c 01       	movw	r18, r24
    25f8:	c9 01       	movw	r24, r18
    25fa:	01 96       	adiw	r24, 0x01	; 1
    25fc:	a7 01       	movw	r20, r14
    25fe:	7a 01       	movw	r14, r20
    2600:	ff ef       	ldi	r31, 0xFF	; 255
    2602:	ef 1a       	sub	r14, r31
    2604:	ff 0a       	sbc	r15, r31
    2606:	fa 01       	movw	r30, r20
    2608:	60 81       	ld	r22, Z
    260a:	a8 01       	movw	r20, r16
    260c:	8a 01       	movw	r16, r20
    260e:	0f 5f       	subi	r16, 0xFF	; 255
    2610:	1f 4f       	sbci	r17, 0xFF	; 255
    2612:	fa 01       	movw	r30, r20
    2614:	40 81       	ld	r20, Z
    2616:	46 27       	eor	r20, r22
    2618:	f9 01       	movw	r30, r18
    261a:	40 83       	st	Z, r20
    261c:	9c 01       	movw	r18, r24
    261e:	c9 01       	movw	r24, r18
    2620:	01 96       	adiw	r24, 0x01	; 1
    2622:	a7 01       	movw	r20, r14
    2624:	7a 01       	movw	r14, r20
    2626:	ff ef       	ldi	r31, 0xFF	; 255
    2628:	ef 1a       	sub	r14, r31
    262a:	ff 0a       	sbc	r15, r31
    262c:	fa 01       	movw	r30, r20
    262e:	60 81       	ld	r22, Z
    2630:	a8 01       	movw	r20, r16
    2632:	8a 01       	movw	r16, r20
    2634:	0f 5f       	subi	r16, 0xFF	; 255
    2636:	1f 4f       	sbci	r17, 0xFF	; 255
    2638:	fa 01       	movw	r30, r20
    263a:	40 81       	ld	r20, Z
    263c:	46 27       	eor	r20, r22
    263e:	f9 01       	movw	r30, r18
    2640:	40 83       	st	Z, r20
    2642:	9c 01       	movw	r18, r24
    2644:	c9 01       	movw	r24, r18
    2646:	01 96       	adiw	r24, 0x01	; 1
    2648:	a7 01       	movw	r20, r14
    264a:	7a 01       	movw	r14, r20
    264c:	ff ef       	ldi	r31, 0xFF	; 255
    264e:	ef 1a       	sub	r14, r31
    2650:	ff 0a       	sbc	r15, r31
    2652:	fa 01       	movw	r30, r20
    2654:	60 81       	ld	r22, Z
    2656:	a8 01       	movw	r20, r16
    2658:	8a 01       	movw	r16, r20
    265a:	0f 5f       	subi	r16, 0xFF	; 255
    265c:	1f 4f       	sbci	r17, 0xFF	; 255
    265e:	fa 01       	movw	r30, r20
    2660:	40 81       	ld	r20, Z
    2662:	46 27       	eor	r20, r22
    2664:	f9 01       	movw	r30, r18
    2666:	40 83       	st	Z, r20
    2668:	9c 01       	movw	r18, r24
    266a:	c9 01       	movw	r24, r18
    266c:	01 96       	adiw	r24, 0x01	; 1
    266e:	a7 01       	movw	r20, r14
    2670:	7a 01       	movw	r14, r20
    2672:	ff ef       	ldi	r31, 0xFF	; 255
    2674:	ef 1a       	sub	r14, r31
    2676:	ff 0a       	sbc	r15, r31
    2678:	fa 01       	movw	r30, r20
    267a:	60 81       	ld	r22, Z
    267c:	a8 01       	movw	r20, r16
    267e:	8a 01       	movw	r16, r20
    2680:	0f 5f       	subi	r16, 0xFF	; 255
    2682:	1f 4f       	sbci	r17, 0xFF	; 255
    2684:	fa 01       	movw	r30, r20
    2686:	40 81       	ld	r20, Z
    2688:	46 27       	eor	r20, r22
    268a:	f9 01       	movw	r30, r18
    268c:	40 83       	st	Z, r20
    268e:	9c 01       	movw	r18, r24
    2690:	c9 01       	movw	r24, r18
    2692:	01 96       	adiw	r24, 0x01	; 1
    2694:	a7 01       	movw	r20, r14
    2696:	7a 01       	movw	r14, r20
    2698:	ff ef       	ldi	r31, 0xFF	; 255
    269a:	ef 1a       	sub	r14, r31
    269c:	ff 0a       	sbc	r15, r31
    269e:	fa 01       	movw	r30, r20
    26a0:	60 81       	ld	r22, Z
    26a2:	a8 01       	movw	r20, r16
    26a4:	8a 01       	movw	r16, r20
    26a6:	0f 5f       	subi	r16, 0xFF	; 255
    26a8:	1f 4f       	sbci	r17, 0xFF	; 255
    26aa:	fa 01       	movw	r30, r20
    26ac:	40 81       	ld	r20, Z
    26ae:	46 27       	eor	r20, r22
    26b0:	f9 01       	movw	r30, r18
    26b2:	40 83       	st	Z, r20
    26b4:	9c 01       	movw	r18, r24
    26b6:	c9 01       	movw	r24, r18
    26b8:	01 96       	adiw	r24, 0x01	; 1
    26ba:	a7 01       	movw	r20, r14
    26bc:	7a 01       	movw	r14, r20
    26be:	ff ef       	ldi	r31, 0xFF	; 255
    26c0:	ef 1a       	sub	r14, r31
    26c2:	ff 0a       	sbc	r15, r31
    26c4:	fa 01       	movw	r30, r20
    26c6:	60 81       	ld	r22, Z
    26c8:	a8 01       	movw	r20, r16
    26ca:	8a 01       	movw	r16, r20
    26cc:	0f 5f       	subi	r16, 0xFF	; 255
    26ce:	1f 4f       	sbci	r17, 0xFF	; 255
    26d0:	fa 01       	movw	r30, r20
    26d2:	40 81       	ld	r20, Z
    26d4:	46 27       	eor	r20, r22
    26d6:	f9 01       	movw	r30, r18
    26d8:	40 83       	st	Z, r20
    26da:	9c 01       	movw	r18, r24
    26dc:	c9 01       	movw	r24, r18
    26de:	01 96       	adiw	r24, 0x01	; 1
    26e0:	a7 01       	movw	r20, r14
    26e2:	7a 01       	movw	r14, r20
    26e4:	ff ef       	ldi	r31, 0xFF	; 255
    26e6:	ef 1a       	sub	r14, r31
    26e8:	ff 0a       	sbc	r15, r31
    26ea:	fa 01       	movw	r30, r20
    26ec:	60 81       	ld	r22, Z
    26ee:	a8 01       	movw	r20, r16
    26f0:	8a 01       	movw	r16, r20
    26f2:	0f 5f       	subi	r16, 0xFF	; 255
    26f4:	1f 4f       	sbci	r17, 0xFF	; 255
    26f6:	fa 01       	movw	r30, r20
    26f8:	40 81       	ld	r20, Z
    26fa:	46 27       	eor	r20, r22
    26fc:	f9 01       	movw	r30, r18
    26fe:	40 83       	st	Z, r20
    2700:	9c 01       	movw	r18, r24
    2702:	c9 01       	movw	r24, r18
    2704:	01 96       	adiw	r24, 0x01	; 1
    2706:	a7 01       	movw	r20, r14
    2708:	7a 01       	movw	r14, r20
    270a:	ff ef       	ldi	r31, 0xFF	; 255
    270c:	ef 1a       	sub	r14, r31
    270e:	ff 0a       	sbc	r15, r31
    2710:	fa 01       	movw	r30, r20
    2712:	60 81       	ld	r22, Z
    2714:	a8 01       	movw	r20, r16
    2716:	8a 01       	movw	r16, r20
    2718:	0f 5f       	subi	r16, 0xFF	; 255
    271a:	1f 4f       	sbci	r17, 0xFF	; 255
    271c:	fa 01       	movw	r30, r20
    271e:	40 81       	ld	r20, Z
    2720:	46 27       	eor	r20, r22
    2722:	f9 01       	movw	r30, r18
    2724:	40 83       	st	Z, r20
    2726:	9c 01       	movw	r18, r24
    2728:	c9 01       	movw	r24, r18
    272a:	01 96       	adiw	r24, 0x01	; 1
    272c:	a7 01       	movw	r20, r14
    272e:	7a 01       	movw	r14, r20
    2730:	ff ef       	ldi	r31, 0xFF	; 255
    2732:	ef 1a       	sub	r14, r31
    2734:	ff 0a       	sbc	r15, r31
    2736:	fa 01       	movw	r30, r20
    2738:	60 81       	ld	r22, Z
    273a:	a8 01       	movw	r20, r16
    273c:	8a 01       	movw	r16, r20
    273e:	0f 5f       	subi	r16, 0xFF	; 255
    2740:	1f 4f       	sbci	r17, 0xFF	; 255
    2742:	fa 01       	movw	r30, r20
    2744:	40 81       	ld	r20, Z
    2746:	46 27       	eor	r20, r22
    2748:	f9 01       	movw	r30, r18
    274a:	40 83       	st	Z, r20
    274c:	97 01       	movw	r18, r14
    274e:	79 01       	movw	r14, r18
    2750:	ff ef       	ldi	r31, 0xFF	; 255
    2752:	ef 1a       	sub	r14, r31
    2754:	ff 0a       	sbc	r15, r31
    2756:	f9 01       	movw	r30, r18
    2758:	20 81       	ld	r18, Z
    275a:	22 2f       	mov	r18, r18
    275c:	30 e0       	ldi	r19, 0x00	; 0
    275e:	20 50       	subi	r18, 0x00	; 0
    2760:	3e 4f       	sbci	r19, 0xFE	; 254
    2762:	f9 01       	movw	r30, r18
    2764:	20 81       	ld	r18, Z
    2766:	d2 2e       	mov	r13, r18
    2768:	97 01       	movw	r18, r14
    276a:	79 01       	movw	r14, r18
    276c:	ff ef       	ldi	r31, 0xFF	; 255
    276e:	ef 1a       	sub	r14, r31
    2770:	ff 0a       	sbc	r15, r31
    2772:	f9 01       	movw	r30, r18
    2774:	20 81       	ld	r18, Z
    2776:	22 2f       	mov	r18, r18
    2778:	30 e0       	ldi	r19, 0x00	; 0
    277a:	20 50       	subi	r18, 0x00	; 0
    277c:	3e 4f       	sbci	r19, 0xFE	; 254
    277e:	f9 01       	movw	r30, r18
    2780:	20 81       	ld	r18, Z
    2782:	a2 2e       	mov	r10, r18
    2784:	97 01       	movw	r18, r14
    2786:	79 01       	movw	r14, r18
    2788:	ff ef       	ldi	r31, 0xFF	; 255
    278a:	ef 1a       	sub	r14, r31
    278c:	ff 0a       	sbc	r15, r31
    278e:	f9 01       	movw	r30, r18
    2790:	20 81       	ld	r18, Z
    2792:	22 2f       	mov	r18, r18
    2794:	30 e0       	ldi	r19, 0x00	; 0
    2796:	20 50       	subi	r18, 0x00	; 0
    2798:	3e 4f       	sbci	r19, 0xFE	; 254
    279a:	f9 01       	movw	r30, r18
    279c:	20 81       	ld	r18, Z
    279e:	b2 2e       	mov	r11, r18
    27a0:	97 01       	movw	r18, r14
    27a2:	79 01       	movw	r14, r18
    27a4:	ff ef       	ldi	r31, 0xFF	; 255
    27a6:	ef 1a       	sub	r14, r31
    27a8:	ff 0a       	sbc	r15, r31
    27aa:	f9 01       	movw	r30, r18
    27ac:	20 81       	ld	r18, Z
    27ae:	22 2f       	mov	r18, r18
    27b0:	30 e0       	ldi	r19, 0x00	; 0
    27b2:	20 50       	subi	r18, 0x00	; 0
    27b4:	3e 4f       	sbci	r19, 0xFE	; 254
    27b6:	f9 01       	movw	r30, r18
    27b8:	20 81       	ld	r18, Z
    27ba:	c2 2e       	mov	r12, r18
    27bc:	4a 2d       	mov	r20, r10
    27be:	29 2d       	mov	r18, r9
    27c0:	30 e0       	ldi	r19, 0x00	; 0
    27c2:	20 50       	subi	r18, 0x00	; 0
    27c4:	3d 4f       	sbci	r19, 0xFD	; 253
    27c6:	f9 01       	movw	r30, r18
    27c8:	20 81       	ld	r18, Z
    27ca:	24 27       	eor	r18, r20
    27cc:	a2 2e       	mov	r10, r18
    27ce:	8c 01       	movw	r16, r24
    27d0:	00 51       	subi	r16, 0x10	; 16
    27d2:	11 09       	sbc	r17, r1
    27d4:	9c 01       	movw	r18, r24
    27d6:	c9 01       	movw	r24, r18
    27d8:	01 96       	adiw	r24, 0x01	; 1
    27da:	6a 2d       	mov	r22, r10
    27dc:	a8 01       	movw	r20, r16
    27de:	8a 01       	movw	r16, r20
    27e0:	0f 5f       	subi	r16, 0xFF	; 255
    27e2:	1f 4f       	sbci	r17, 0xFF	; 255
    27e4:	fa 01       	movw	r30, r20
    27e6:	40 81       	ld	r20, Z
    27e8:	46 27       	eor	r20, r22
    27ea:	f9 01       	movw	r30, r18
    27ec:	40 83       	st	Z, r20
    27ee:	9c 01       	movw	r18, r24
    27f0:	c9 01       	movw	r24, r18
    27f2:	01 96       	adiw	r24, 0x01	; 1
    27f4:	6b 2d       	mov	r22, r11
    27f6:	a8 01       	movw	r20, r16
    27f8:	8a 01       	movw	r16, r20
    27fa:	0f 5f       	subi	r16, 0xFF	; 255
    27fc:	1f 4f       	sbci	r17, 0xFF	; 255
    27fe:	fa 01       	movw	r30, r20
    2800:	40 81       	ld	r20, Z
    2802:	46 27       	eor	r20, r22
    2804:	f9 01       	movw	r30, r18
    2806:	40 83       	st	Z, r20
    2808:	9c 01       	movw	r18, r24
    280a:	c9 01       	movw	r24, r18
    280c:	01 96       	adiw	r24, 0x01	; 1
    280e:	6c 2d       	mov	r22, r12
    2810:	a8 01       	movw	r20, r16
    2812:	8a 01       	movw	r16, r20
    2814:	0f 5f       	subi	r16, 0xFF	; 255
    2816:	1f 4f       	sbci	r17, 0xFF	; 255
    2818:	fa 01       	movw	r30, r20
    281a:	40 81       	ld	r20, Z
    281c:	46 27       	eor	r20, r22
    281e:	f9 01       	movw	r30, r18
    2820:	40 83       	st	Z, r20
    2822:	9c 01       	movw	r18, r24
    2824:	c9 01       	movw	r24, r18
    2826:	01 96       	adiw	r24, 0x01	; 1
    2828:	6d 2d       	mov	r22, r13
    282a:	a8 01       	movw	r20, r16
    282c:	8a 01       	movw	r16, r20
    282e:	0f 5f       	subi	r16, 0xFF	; 255
    2830:	1f 4f       	sbci	r17, 0xFF	; 255
    2832:	fa 01       	movw	r30, r20
    2834:	40 81       	ld	r20, Z
    2836:	46 27       	eor	r20, r22
    2838:	f9 01       	movw	r30, r18
    283a:	40 83       	st	Z, r20
    283c:	9c 01       	movw	r18, r24
    283e:	c9 01       	movw	r24, r18
    2840:	01 96       	adiw	r24, 0x01	; 1
    2842:	a7 01       	movw	r20, r14
    2844:	7a 01       	movw	r14, r20
    2846:	ff ef       	ldi	r31, 0xFF	; 255
    2848:	ef 1a       	sub	r14, r31
    284a:	ff 0a       	sbc	r15, r31
    284c:	fa 01       	movw	r30, r20
    284e:	60 81       	ld	r22, Z
    2850:	a8 01       	movw	r20, r16
    2852:	8a 01       	movw	r16, r20
    2854:	0f 5f       	subi	r16, 0xFF	; 255
    2856:	1f 4f       	sbci	r17, 0xFF	; 255
    2858:	fa 01       	movw	r30, r20
    285a:	40 81       	ld	r20, Z
    285c:	46 27       	eor	r20, r22
    285e:	f9 01       	movw	r30, r18
    2860:	40 83       	st	Z, r20
    2862:	9c 01       	movw	r18, r24
    2864:	c9 01       	movw	r24, r18
    2866:	01 96       	adiw	r24, 0x01	; 1
    2868:	a7 01       	movw	r20, r14
    286a:	7a 01       	movw	r14, r20
    286c:	ff ef       	ldi	r31, 0xFF	; 255
    286e:	ef 1a       	sub	r14, r31
    2870:	ff 0a       	sbc	r15, r31
    2872:	fa 01       	movw	r30, r20
    2874:	60 81       	ld	r22, Z
    2876:	a8 01       	movw	r20, r16
    2878:	8a 01       	movw	r16, r20
    287a:	0f 5f       	subi	r16, 0xFF	; 255
    287c:	1f 4f       	sbci	r17, 0xFF	; 255
    287e:	fa 01       	movw	r30, r20
    2880:	40 81       	ld	r20, Z
    2882:	46 27       	eor	r20, r22
    2884:	f9 01       	movw	r30, r18
    2886:	40 83       	st	Z, r20
    2888:	9c 01       	movw	r18, r24
    288a:	c9 01       	movw	r24, r18
    288c:	01 96       	adiw	r24, 0x01	; 1
    288e:	a7 01       	movw	r20, r14
    2890:	7a 01       	movw	r14, r20
    2892:	ff ef       	ldi	r31, 0xFF	; 255
    2894:	ef 1a       	sub	r14, r31
    2896:	ff 0a       	sbc	r15, r31
    2898:	fa 01       	movw	r30, r20
    289a:	60 81       	ld	r22, Z
    289c:	a8 01       	movw	r20, r16
    289e:	8a 01       	movw	r16, r20
    28a0:	0f 5f       	subi	r16, 0xFF	; 255
    28a2:	1f 4f       	sbci	r17, 0xFF	; 255
    28a4:	fa 01       	movw	r30, r20
    28a6:	40 81       	ld	r20, Z
    28a8:	46 27       	eor	r20, r22
    28aa:	f9 01       	movw	r30, r18
    28ac:	40 83       	st	Z, r20
    28ae:	9c 01       	movw	r18, r24
    28b0:	c9 01       	movw	r24, r18
    28b2:	01 96       	adiw	r24, 0x01	; 1
    28b4:	a7 01       	movw	r20, r14
    28b6:	7a 01       	movw	r14, r20
    28b8:	ff ef       	ldi	r31, 0xFF	; 255
    28ba:	ef 1a       	sub	r14, r31
    28bc:	ff 0a       	sbc	r15, r31
    28be:	fa 01       	movw	r30, r20
    28c0:	60 81       	ld	r22, Z
    28c2:	a8 01       	movw	r20, r16
    28c4:	8a 01       	movw	r16, r20
    28c6:	0f 5f       	subi	r16, 0xFF	; 255
    28c8:	1f 4f       	sbci	r17, 0xFF	; 255
    28ca:	fa 01       	movw	r30, r20
    28cc:	40 81       	ld	r20, Z
    28ce:	46 27       	eor	r20, r22
    28d0:	f9 01       	movw	r30, r18
    28d2:	40 83       	st	Z, r20
    28d4:	9c 01       	movw	r18, r24
    28d6:	c9 01       	movw	r24, r18
    28d8:	01 96       	adiw	r24, 0x01	; 1
    28da:	a7 01       	movw	r20, r14
    28dc:	7a 01       	movw	r14, r20
    28de:	ff ef       	ldi	r31, 0xFF	; 255
    28e0:	ef 1a       	sub	r14, r31
    28e2:	ff 0a       	sbc	r15, r31
    28e4:	fa 01       	movw	r30, r20
    28e6:	60 81       	ld	r22, Z
    28e8:	a8 01       	movw	r20, r16
    28ea:	8a 01       	movw	r16, r20
    28ec:	0f 5f       	subi	r16, 0xFF	; 255
    28ee:	1f 4f       	sbci	r17, 0xFF	; 255
    28f0:	fa 01       	movw	r30, r20
    28f2:	40 81       	ld	r20, Z
    28f4:	46 27       	eor	r20, r22
    28f6:	f9 01       	movw	r30, r18
    28f8:	40 83       	st	Z, r20
    28fa:	9c 01       	movw	r18, r24
    28fc:	c9 01       	movw	r24, r18
    28fe:	01 96       	adiw	r24, 0x01	; 1
    2900:	a7 01       	movw	r20, r14
    2902:	7a 01       	movw	r14, r20
    2904:	ff ef       	ldi	r31, 0xFF	; 255
    2906:	ef 1a       	sub	r14, r31
    2908:	ff 0a       	sbc	r15, r31
    290a:	fa 01       	movw	r30, r20
    290c:	60 81       	ld	r22, Z
    290e:	a8 01       	movw	r20, r16
    2910:	8a 01       	movw	r16, r20
    2912:	0f 5f       	subi	r16, 0xFF	; 255
    2914:	1f 4f       	sbci	r17, 0xFF	; 255
    2916:	fa 01       	movw	r30, r20
    2918:	40 81       	ld	r20, Z
    291a:	46 27       	eor	r20, r22
    291c:	f9 01       	movw	r30, r18
    291e:	40 83       	st	Z, r20
    2920:	9c 01       	movw	r18, r24
    2922:	c9 01       	movw	r24, r18
    2924:	01 96       	adiw	r24, 0x01	; 1
    2926:	a7 01       	movw	r20, r14
    2928:	7a 01       	movw	r14, r20
    292a:	ff ef       	ldi	r31, 0xFF	; 255
    292c:	ef 1a       	sub	r14, r31
    292e:	ff 0a       	sbc	r15, r31
    2930:	fa 01       	movw	r30, r20
    2932:	60 81       	ld	r22, Z
    2934:	a8 01       	movw	r20, r16
    2936:	8a 01       	movw	r16, r20
    2938:	0f 5f       	subi	r16, 0xFF	; 255
    293a:	1f 4f       	sbci	r17, 0xFF	; 255
    293c:	fa 01       	movw	r30, r20
    293e:	40 81       	ld	r20, Z
    2940:	46 27       	eor	r20, r22
    2942:	f9 01       	movw	r30, r18
    2944:	40 83       	st	Z, r20
    2946:	9c 01       	movw	r18, r24
    2948:	c9 01       	movw	r24, r18
    294a:	01 96       	adiw	r24, 0x01	; 1
    294c:	a7 01       	movw	r20, r14
    294e:	7a 01       	movw	r14, r20
    2950:	ff ef       	ldi	r31, 0xFF	; 255
    2952:	ef 1a       	sub	r14, r31
    2954:	ff 0a       	sbc	r15, r31
    2956:	fa 01       	movw	r30, r20
    2958:	60 81       	ld	r22, Z
    295a:	a8 01       	movw	r20, r16
    295c:	8a 01       	movw	r16, r20
    295e:	0f 5f       	subi	r16, 0xFF	; 255
    2960:	1f 4f       	sbci	r17, 0xFF	; 255
    2962:	fa 01       	movw	r30, r20
    2964:	40 81       	ld	r20, Z
    2966:	46 27       	eor	r20, r22
    2968:	f9 01       	movw	r30, r18
    296a:	40 83       	st	Z, r20
    296c:	9c 01       	movw	r18, r24
    296e:	c9 01       	movw	r24, r18
    2970:	01 96       	adiw	r24, 0x01	; 1
    2972:	a7 01       	movw	r20, r14
    2974:	7a 01       	movw	r14, r20
    2976:	ff ef       	ldi	r31, 0xFF	; 255
    2978:	ef 1a       	sub	r14, r31
    297a:	ff 0a       	sbc	r15, r31
    297c:	fa 01       	movw	r30, r20
    297e:	60 81       	ld	r22, Z
    2980:	a8 01       	movw	r20, r16
    2982:	8a 01       	movw	r16, r20
    2984:	0f 5f       	subi	r16, 0xFF	; 255
    2986:	1f 4f       	sbci	r17, 0xFF	; 255
    2988:	fa 01       	movw	r30, r20
    298a:	40 81       	ld	r20, Z
    298c:	46 27       	eor	r20, r22
    298e:	f9 01       	movw	r30, r18
    2990:	40 83       	st	Z, r20
    2992:	9c 01       	movw	r18, r24
    2994:	c9 01       	movw	r24, r18
    2996:	01 96       	adiw	r24, 0x01	; 1
    2998:	a7 01       	movw	r20, r14
    299a:	7a 01       	movw	r14, r20
    299c:	ff ef       	ldi	r31, 0xFF	; 255
    299e:	ef 1a       	sub	r14, r31
    29a0:	ff 0a       	sbc	r15, r31
    29a2:	fa 01       	movw	r30, r20
    29a4:	60 81       	ld	r22, Z
    29a6:	a8 01       	movw	r20, r16
    29a8:	8a 01       	movw	r16, r20
    29aa:	0f 5f       	subi	r16, 0xFF	; 255
    29ac:	1f 4f       	sbci	r17, 0xFF	; 255
    29ae:	fa 01       	movw	r30, r20
    29b0:	40 81       	ld	r20, Z
    29b2:	46 27       	eor	r20, r22
    29b4:	f9 01       	movw	r30, r18
    29b6:	40 83       	st	Z, r20
    29b8:	9c 01       	movw	r18, r24
    29ba:	c9 01       	movw	r24, r18
    29bc:	01 96       	adiw	r24, 0x01	; 1
    29be:	a7 01       	movw	r20, r14
    29c0:	7a 01       	movw	r14, r20
    29c2:	ff ef       	ldi	r31, 0xFF	; 255
    29c4:	ef 1a       	sub	r14, r31
    29c6:	ff 0a       	sbc	r15, r31
    29c8:	fa 01       	movw	r30, r20
    29ca:	60 81       	ld	r22, Z
    29cc:	a8 01       	movw	r20, r16
    29ce:	8a 01       	movw	r16, r20
    29d0:	0f 5f       	subi	r16, 0xFF	; 255
    29d2:	1f 4f       	sbci	r17, 0xFF	; 255
    29d4:	fa 01       	movw	r30, r20
    29d6:	40 81       	ld	r20, Z
    29d8:	46 27       	eor	r20, r22
    29da:	f9 01       	movw	r30, r18
    29dc:	40 83       	st	Z, r20
    29de:	9c 01       	movw	r18, r24
    29e0:	c9 01       	movw	r24, r18
    29e2:	01 96       	adiw	r24, 0x01	; 1
    29e4:	a7 01       	movw	r20, r14
    29e6:	7a 01       	movw	r14, r20
    29e8:	ff ef       	ldi	r31, 0xFF	; 255
    29ea:	ef 1a       	sub	r14, r31
    29ec:	ff 0a       	sbc	r15, r31
    29ee:	fa 01       	movw	r30, r20
    29f0:	60 81       	ld	r22, Z
    29f2:	a8 01       	movw	r20, r16
    29f4:	8a 01       	movw	r16, r20
    29f6:	0f 5f       	subi	r16, 0xFF	; 255
    29f8:	1f 4f       	sbci	r17, 0xFF	; 255
    29fa:	fa 01       	movw	r30, r20
    29fc:	40 81       	ld	r20, Z
    29fe:	46 27       	eor	r20, r22
    2a00:	f9 01       	movw	r30, r18
    2a02:	40 83       	st	Z, r20
    2a04:	97 01       	movw	r18, r14
    2a06:	79 01       	movw	r14, r18
    2a08:	ff ef       	ldi	r31, 0xFF	; 255
    2a0a:	ef 1a       	sub	r14, r31
    2a0c:	ff 0a       	sbc	r15, r31
    2a0e:	f9 01       	movw	r30, r18
    2a10:	20 81       	ld	r18, Z
    2a12:	22 2f       	mov	r18, r18
    2a14:	30 e0       	ldi	r19, 0x00	; 0
    2a16:	20 50       	subi	r18, 0x00	; 0
    2a18:	3e 4f       	sbci	r19, 0xFE	; 254
    2a1a:	f9 01       	movw	r30, r18
    2a1c:	20 81       	ld	r18, Z
    2a1e:	d2 2e       	mov	r13, r18
    2a20:	97 01       	movw	r18, r14
    2a22:	79 01       	movw	r14, r18
    2a24:	ff ef       	ldi	r31, 0xFF	; 255
    2a26:	ef 1a       	sub	r14, r31
    2a28:	ff 0a       	sbc	r15, r31
    2a2a:	f9 01       	movw	r30, r18
    2a2c:	20 81       	ld	r18, Z
    2a2e:	22 2f       	mov	r18, r18
    2a30:	30 e0       	ldi	r19, 0x00	; 0
    2a32:	20 50       	subi	r18, 0x00	; 0
    2a34:	3e 4f       	sbci	r19, 0xFE	; 254
    2a36:	f9 01       	movw	r30, r18
    2a38:	20 81       	ld	r18, Z
    2a3a:	a2 2e       	mov	r10, r18
    2a3c:	97 01       	movw	r18, r14
    2a3e:	79 01       	movw	r14, r18
    2a40:	ff ef       	ldi	r31, 0xFF	; 255
    2a42:	ef 1a       	sub	r14, r31
    2a44:	ff 0a       	sbc	r15, r31
    2a46:	f9 01       	movw	r30, r18
    2a48:	20 81       	ld	r18, Z
    2a4a:	22 2f       	mov	r18, r18
    2a4c:	30 e0       	ldi	r19, 0x00	; 0
    2a4e:	20 50       	subi	r18, 0x00	; 0
    2a50:	3e 4f       	sbci	r19, 0xFE	; 254
    2a52:	f9 01       	movw	r30, r18
    2a54:	20 81       	ld	r18, Z
    2a56:	b2 2e       	mov	r11, r18
    2a58:	97 01       	movw	r18, r14
    2a5a:	79 01       	movw	r14, r18
    2a5c:	ff ef       	ldi	r31, 0xFF	; 255
    2a5e:	ef 1a       	sub	r14, r31
    2a60:	ff 0a       	sbc	r15, r31
    2a62:	f9 01       	movw	r30, r18
    2a64:	20 81       	ld	r18, Z
    2a66:	22 2f       	mov	r18, r18
    2a68:	30 e0       	ldi	r19, 0x00	; 0
    2a6a:	20 50       	subi	r18, 0x00	; 0
    2a6c:	3e 4f       	sbci	r19, 0xFE	; 254
    2a6e:	f9 01       	movw	r30, r18
    2a70:	20 81       	ld	r18, Z
    2a72:	c2 2e       	mov	r12, r18
    2a74:	4a 2d       	mov	r20, r10
    2a76:	29 2d       	mov	r18, r9
    2a78:	30 e0       	ldi	r19, 0x00	; 0
    2a7a:	20 50       	subi	r18, 0x00	; 0
    2a7c:	3d 4f       	sbci	r19, 0xFD	; 253
    2a7e:	f9 01       	movw	r30, r18
    2a80:	20 81       	ld	r18, Z
    2a82:	24 27       	eor	r18, r20
    2a84:	a2 2e       	mov	r10, r18
    2a86:	8c 01       	movw	r16, r24
    2a88:	00 51       	subi	r16, 0x10	; 16
    2a8a:	11 09       	sbc	r17, r1
    2a8c:	9c 01       	movw	r18, r24
    2a8e:	c9 01       	movw	r24, r18
    2a90:	01 96       	adiw	r24, 0x01	; 1
    2a92:	6a 2d       	mov	r22, r10
    2a94:	a8 01       	movw	r20, r16
    2a96:	8a 01       	movw	r16, r20
    2a98:	0f 5f       	subi	r16, 0xFF	; 255
    2a9a:	1f 4f       	sbci	r17, 0xFF	; 255
    2a9c:	fa 01       	movw	r30, r20
    2a9e:	40 81       	ld	r20, Z
    2aa0:	46 27       	eor	r20, r22
    2aa2:	f9 01       	movw	r30, r18
    2aa4:	40 83       	st	Z, r20
    2aa6:	9c 01       	movw	r18, r24
    2aa8:	c9 01       	movw	r24, r18
    2aaa:	01 96       	adiw	r24, 0x01	; 1
    2aac:	6b 2d       	mov	r22, r11
    2aae:	a8 01       	movw	r20, r16
    2ab0:	8a 01       	movw	r16, r20
    2ab2:	0f 5f       	subi	r16, 0xFF	; 255
    2ab4:	1f 4f       	sbci	r17, 0xFF	; 255
    2ab6:	fa 01       	movw	r30, r20
    2ab8:	40 81       	ld	r20, Z
    2aba:	46 27       	eor	r20, r22
    2abc:	f9 01       	movw	r30, r18
    2abe:	40 83       	st	Z, r20
    2ac0:	9c 01       	movw	r18, r24
    2ac2:	c9 01       	movw	r24, r18
    2ac4:	01 96       	adiw	r24, 0x01	; 1
    2ac6:	6c 2d       	mov	r22, r12
    2ac8:	a8 01       	movw	r20, r16
    2aca:	8a 01       	movw	r16, r20
    2acc:	0f 5f       	subi	r16, 0xFF	; 255
    2ace:	1f 4f       	sbci	r17, 0xFF	; 255
    2ad0:	fa 01       	movw	r30, r20
    2ad2:	40 81       	ld	r20, Z
    2ad4:	46 27       	eor	r20, r22
    2ad6:	f9 01       	movw	r30, r18
    2ad8:	40 83       	st	Z, r20
    2ada:	9c 01       	movw	r18, r24
    2adc:	c9 01       	movw	r24, r18
    2ade:	01 96       	adiw	r24, 0x01	; 1
    2ae0:	6d 2d       	mov	r22, r13
    2ae2:	a8 01       	movw	r20, r16
    2ae4:	8a 01       	movw	r16, r20
    2ae6:	0f 5f       	subi	r16, 0xFF	; 255
    2ae8:	1f 4f       	sbci	r17, 0xFF	; 255
    2aea:	fa 01       	movw	r30, r20
    2aec:	40 81       	ld	r20, Z
    2aee:	46 27       	eor	r20, r22
    2af0:	f9 01       	movw	r30, r18
    2af2:	40 83       	st	Z, r20
    2af4:	9c 01       	movw	r18, r24
    2af6:	c9 01       	movw	r24, r18
    2af8:	01 96       	adiw	r24, 0x01	; 1
    2afa:	a7 01       	movw	r20, r14
    2afc:	7a 01       	movw	r14, r20
    2afe:	ff ef       	ldi	r31, 0xFF	; 255
    2b00:	ef 1a       	sub	r14, r31
    2b02:	ff 0a       	sbc	r15, r31
    2b04:	fa 01       	movw	r30, r20
    2b06:	60 81       	ld	r22, Z
    2b08:	a8 01       	movw	r20, r16
    2b0a:	8a 01       	movw	r16, r20
    2b0c:	0f 5f       	subi	r16, 0xFF	; 255
    2b0e:	1f 4f       	sbci	r17, 0xFF	; 255
    2b10:	fa 01       	movw	r30, r20
    2b12:	40 81       	ld	r20, Z
    2b14:	46 27       	eor	r20, r22
    2b16:	f9 01       	movw	r30, r18
    2b18:	40 83       	st	Z, r20
    2b1a:	9c 01       	movw	r18, r24
    2b1c:	c9 01       	movw	r24, r18
    2b1e:	01 96       	adiw	r24, 0x01	; 1
    2b20:	a7 01       	movw	r20, r14
    2b22:	7a 01       	movw	r14, r20
    2b24:	ff ef       	ldi	r31, 0xFF	; 255
    2b26:	ef 1a       	sub	r14, r31
    2b28:	ff 0a       	sbc	r15, r31
    2b2a:	fa 01       	movw	r30, r20
    2b2c:	60 81       	ld	r22, Z
    2b2e:	a8 01       	movw	r20, r16
    2b30:	8a 01       	movw	r16, r20
    2b32:	0f 5f       	subi	r16, 0xFF	; 255
    2b34:	1f 4f       	sbci	r17, 0xFF	; 255
    2b36:	fa 01       	movw	r30, r20
    2b38:	40 81       	ld	r20, Z
    2b3a:	46 27       	eor	r20, r22
    2b3c:	f9 01       	movw	r30, r18
    2b3e:	40 83       	st	Z, r20
    2b40:	9c 01       	movw	r18, r24
    2b42:	c9 01       	movw	r24, r18
    2b44:	01 96       	adiw	r24, 0x01	; 1
    2b46:	a7 01       	movw	r20, r14
    2b48:	7a 01       	movw	r14, r20
    2b4a:	ff ef       	ldi	r31, 0xFF	; 255
    2b4c:	ef 1a       	sub	r14, r31
    2b4e:	ff 0a       	sbc	r15, r31
    2b50:	fa 01       	movw	r30, r20
    2b52:	60 81       	ld	r22, Z
    2b54:	a8 01       	movw	r20, r16
    2b56:	8a 01       	movw	r16, r20
    2b58:	0f 5f       	subi	r16, 0xFF	; 255
    2b5a:	1f 4f       	sbci	r17, 0xFF	; 255
    2b5c:	fa 01       	movw	r30, r20
    2b5e:	40 81       	ld	r20, Z
    2b60:	46 27       	eor	r20, r22
    2b62:	f9 01       	movw	r30, r18
    2b64:	40 83       	st	Z, r20
    2b66:	9c 01       	movw	r18, r24
    2b68:	c9 01       	movw	r24, r18
    2b6a:	01 96       	adiw	r24, 0x01	; 1
    2b6c:	a7 01       	movw	r20, r14
    2b6e:	7a 01       	movw	r14, r20
    2b70:	ff ef       	ldi	r31, 0xFF	; 255
    2b72:	ef 1a       	sub	r14, r31
    2b74:	ff 0a       	sbc	r15, r31
    2b76:	fa 01       	movw	r30, r20
    2b78:	60 81       	ld	r22, Z
    2b7a:	a8 01       	movw	r20, r16
    2b7c:	8a 01       	movw	r16, r20
    2b7e:	0f 5f       	subi	r16, 0xFF	; 255
    2b80:	1f 4f       	sbci	r17, 0xFF	; 255
    2b82:	fa 01       	movw	r30, r20
    2b84:	40 81       	ld	r20, Z
    2b86:	46 27       	eor	r20, r22
    2b88:	f9 01       	movw	r30, r18
    2b8a:	40 83       	st	Z, r20
    2b8c:	9c 01       	movw	r18, r24
    2b8e:	c9 01       	movw	r24, r18
    2b90:	01 96       	adiw	r24, 0x01	; 1
    2b92:	a7 01       	movw	r20, r14
    2b94:	7a 01       	movw	r14, r20
    2b96:	ff ef       	ldi	r31, 0xFF	; 255
    2b98:	ef 1a       	sub	r14, r31
    2b9a:	ff 0a       	sbc	r15, r31
    2b9c:	fa 01       	movw	r30, r20
    2b9e:	60 81       	ld	r22, Z
    2ba0:	a8 01       	movw	r20, r16
    2ba2:	8a 01       	movw	r16, r20
    2ba4:	0f 5f       	subi	r16, 0xFF	; 255
    2ba6:	1f 4f       	sbci	r17, 0xFF	; 255
    2ba8:	fa 01       	movw	r30, r20
    2baa:	40 81       	ld	r20, Z
    2bac:	46 27       	eor	r20, r22
    2bae:	f9 01       	movw	r30, r18
    2bb0:	40 83       	st	Z, r20
    2bb2:	9c 01       	movw	r18, r24
    2bb4:	c9 01       	movw	r24, r18
    2bb6:	01 96       	adiw	r24, 0x01	; 1
    2bb8:	a7 01       	movw	r20, r14
    2bba:	7a 01       	movw	r14, r20
    2bbc:	ff ef       	ldi	r31, 0xFF	; 255
    2bbe:	ef 1a       	sub	r14, r31
    2bc0:	ff 0a       	sbc	r15, r31
    2bc2:	fa 01       	movw	r30, r20
    2bc4:	60 81       	ld	r22, Z
    2bc6:	a8 01       	movw	r20, r16
    2bc8:	8a 01       	movw	r16, r20
    2bca:	0f 5f       	subi	r16, 0xFF	; 255
    2bcc:	1f 4f       	sbci	r17, 0xFF	; 255
    2bce:	fa 01       	movw	r30, r20
    2bd0:	40 81       	ld	r20, Z
    2bd2:	46 27       	eor	r20, r22
    2bd4:	f9 01       	movw	r30, r18
    2bd6:	40 83       	st	Z, r20
    2bd8:	9c 01       	movw	r18, r24
    2bda:	c9 01       	movw	r24, r18
    2bdc:	01 96       	adiw	r24, 0x01	; 1
    2bde:	a7 01       	movw	r20, r14
    2be0:	7a 01       	movw	r14, r20
    2be2:	ff ef       	ldi	r31, 0xFF	; 255
    2be4:	ef 1a       	sub	r14, r31
    2be6:	ff 0a       	sbc	r15, r31
    2be8:	fa 01       	movw	r30, r20
    2bea:	60 81       	ld	r22, Z
    2bec:	a8 01       	movw	r20, r16
    2bee:	8a 01       	movw	r16, r20
    2bf0:	0f 5f       	subi	r16, 0xFF	; 255
    2bf2:	1f 4f       	sbci	r17, 0xFF	; 255
    2bf4:	fa 01       	movw	r30, r20
    2bf6:	40 81       	ld	r20, Z
    2bf8:	46 27       	eor	r20, r22
    2bfa:	f9 01       	movw	r30, r18
    2bfc:	40 83       	st	Z, r20
    2bfe:	9c 01       	movw	r18, r24
    2c00:	c9 01       	movw	r24, r18
    2c02:	01 96       	adiw	r24, 0x01	; 1
    2c04:	a7 01       	movw	r20, r14
    2c06:	7a 01       	movw	r14, r20
    2c08:	ff ef       	ldi	r31, 0xFF	; 255
    2c0a:	ef 1a       	sub	r14, r31
    2c0c:	ff 0a       	sbc	r15, r31
    2c0e:	fa 01       	movw	r30, r20
    2c10:	60 81       	ld	r22, Z
    2c12:	a8 01       	movw	r20, r16
    2c14:	8a 01       	movw	r16, r20
    2c16:	0f 5f       	subi	r16, 0xFF	; 255
    2c18:	1f 4f       	sbci	r17, 0xFF	; 255
    2c1a:	fa 01       	movw	r30, r20
    2c1c:	40 81       	ld	r20, Z
    2c1e:	46 27       	eor	r20, r22
    2c20:	f9 01       	movw	r30, r18
    2c22:	40 83       	st	Z, r20
    2c24:	9c 01       	movw	r18, r24
    2c26:	c9 01       	movw	r24, r18
    2c28:	01 96       	adiw	r24, 0x01	; 1
    2c2a:	a7 01       	movw	r20, r14
    2c2c:	7a 01       	movw	r14, r20
    2c2e:	ff ef       	ldi	r31, 0xFF	; 255
    2c30:	ef 1a       	sub	r14, r31
    2c32:	ff 0a       	sbc	r15, r31
    2c34:	fa 01       	movw	r30, r20
    2c36:	60 81       	ld	r22, Z
    2c38:	a8 01       	movw	r20, r16
    2c3a:	8a 01       	movw	r16, r20
    2c3c:	0f 5f       	subi	r16, 0xFF	; 255
    2c3e:	1f 4f       	sbci	r17, 0xFF	; 255
    2c40:	fa 01       	movw	r30, r20
    2c42:	40 81       	ld	r20, Z
    2c44:	46 27       	eor	r20, r22
    2c46:	f9 01       	movw	r30, r18
    2c48:	40 83       	st	Z, r20
    2c4a:	9c 01       	movw	r18, r24
    2c4c:	c9 01       	movw	r24, r18
    2c4e:	01 96       	adiw	r24, 0x01	; 1
    2c50:	a7 01       	movw	r20, r14
    2c52:	7a 01       	movw	r14, r20
    2c54:	ff ef       	ldi	r31, 0xFF	; 255
    2c56:	ef 1a       	sub	r14, r31
    2c58:	ff 0a       	sbc	r15, r31
    2c5a:	fa 01       	movw	r30, r20
    2c5c:	60 81       	ld	r22, Z
    2c5e:	a8 01       	movw	r20, r16
    2c60:	8a 01       	movw	r16, r20
    2c62:	0f 5f       	subi	r16, 0xFF	; 255
    2c64:	1f 4f       	sbci	r17, 0xFF	; 255
    2c66:	fa 01       	movw	r30, r20
    2c68:	40 81       	ld	r20, Z
    2c6a:	46 27       	eor	r20, r22
    2c6c:	f9 01       	movw	r30, r18
    2c6e:	40 83       	st	Z, r20
    2c70:	9c 01       	movw	r18, r24
    2c72:	c9 01       	movw	r24, r18
    2c74:	01 96       	adiw	r24, 0x01	; 1
    2c76:	a7 01       	movw	r20, r14
    2c78:	7a 01       	movw	r14, r20
    2c7a:	ff ef       	ldi	r31, 0xFF	; 255
    2c7c:	ef 1a       	sub	r14, r31
    2c7e:	ff 0a       	sbc	r15, r31
    2c80:	fa 01       	movw	r30, r20
    2c82:	60 81       	ld	r22, Z
    2c84:	a8 01       	movw	r20, r16
    2c86:	8a 01       	movw	r16, r20
    2c88:	0f 5f       	subi	r16, 0xFF	; 255
    2c8a:	1f 4f       	sbci	r17, 0xFF	; 255
    2c8c:	fa 01       	movw	r30, r20
    2c8e:	40 81       	ld	r20, Z
    2c90:	46 27       	eor	r20, r22
    2c92:	f9 01       	movw	r30, r18
    2c94:	40 83       	st	Z, r20
    2c96:	9c 01       	movw	r18, r24
    2c98:	c9 01       	movw	r24, r18
    2c9a:	01 96       	adiw	r24, 0x01	; 1
    2c9c:	a7 01       	movw	r20, r14
    2c9e:	7a 01       	movw	r14, r20
    2ca0:	ff ef       	ldi	r31, 0xFF	; 255
    2ca2:	ef 1a       	sub	r14, r31
    2ca4:	ff 0a       	sbc	r15, r31
    2ca6:	fa 01       	movw	r30, r20
    2ca8:	60 81       	ld	r22, Z
    2caa:	a8 01       	movw	r20, r16
    2cac:	8a 01       	movw	r16, r20
    2cae:	0f 5f       	subi	r16, 0xFF	; 255
    2cb0:	1f 4f       	sbci	r17, 0xFF	; 255
    2cb2:	fa 01       	movw	r30, r20
    2cb4:	40 81       	ld	r20, Z
    2cb6:	46 27       	eor	r20, r22
    2cb8:	f9 01       	movw	r30, r18
    2cba:	40 83       	st	Z, r20
    2cbc:	97 01       	movw	r18, r14
    2cbe:	79 01       	movw	r14, r18
    2cc0:	ff ef       	ldi	r31, 0xFF	; 255
    2cc2:	ef 1a       	sub	r14, r31
    2cc4:	ff 0a       	sbc	r15, r31
    2cc6:	f9 01       	movw	r30, r18
    2cc8:	20 81       	ld	r18, Z
    2cca:	22 2f       	mov	r18, r18
    2ccc:	30 e0       	ldi	r19, 0x00	; 0
    2cce:	20 50       	subi	r18, 0x00	; 0
    2cd0:	3e 4f       	sbci	r19, 0xFE	; 254
    2cd2:	f9 01       	movw	r30, r18
    2cd4:	20 81       	ld	r18, Z
    2cd6:	d2 2e       	mov	r13, r18
    2cd8:	97 01       	movw	r18, r14
    2cda:	79 01       	movw	r14, r18
    2cdc:	ff ef       	ldi	r31, 0xFF	; 255
    2cde:	ef 1a       	sub	r14, r31
    2ce0:	ff 0a       	sbc	r15, r31
    2ce2:	f9 01       	movw	r30, r18
    2ce4:	20 81       	ld	r18, Z
    2ce6:	22 2f       	mov	r18, r18
    2ce8:	30 e0       	ldi	r19, 0x00	; 0
    2cea:	20 50       	subi	r18, 0x00	; 0
    2cec:	3e 4f       	sbci	r19, 0xFE	; 254
    2cee:	f9 01       	movw	r30, r18
    2cf0:	20 81       	ld	r18, Z
    2cf2:	a2 2e       	mov	r10, r18
    2cf4:	97 01       	movw	r18, r14
    2cf6:	79 01       	movw	r14, r18
    2cf8:	ff ef       	ldi	r31, 0xFF	; 255
    2cfa:	ef 1a       	sub	r14, r31
    2cfc:	ff 0a       	sbc	r15, r31
    2cfe:	f9 01       	movw	r30, r18
    2d00:	20 81       	ld	r18, Z
    2d02:	22 2f       	mov	r18, r18
    2d04:	30 e0       	ldi	r19, 0x00	; 0
    2d06:	20 50       	subi	r18, 0x00	; 0
    2d08:	3e 4f       	sbci	r19, 0xFE	; 254
    2d0a:	f9 01       	movw	r30, r18
    2d0c:	20 81       	ld	r18, Z
    2d0e:	b2 2e       	mov	r11, r18
    2d10:	97 01       	movw	r18, r14
    2d12:	79 01       	movw	r14, r18
    2d14:	ff ef       	ldi	r31, 0xFF	; 255
    2d16:	ef 1a       	sub	r14, r31
    2d18:	ff 0a       	sbc	r15, r31
    2d1a:	f9 01       	movw	r30, r18
    2d1c:	20 81       	ld	r18, Z
    2d1e:	22 2f       	mov	r18, r18
    2d20:	30 e0       	ldi	r19, 0x00	; 0
    2d22:	20 50       	subi	r18, 0x00	; 0
    2d24:	3e 4f       	sbci	r19, 0xFE	; 254
    2d26:	f9 01       	movw	r30, r18
    2d28:	20 81       	ld	r18, Z
    2d2a:	c2 2e       	mov	r12, r18
    2d2c:	4a 2d       	mov	r20, r10
    2d2e:	29 2d       	mov	r18, r9
    2d30:	30 e0       	ldi	r19, 0x00	; 0
    2d32:	20 50       	subi	r18, 0x00	; 0
    2d34:	3d 4f       	sbci	r19, 0xFD	; 253
    2d36:	f9 01       	movw	r30, r18
    2d38:	20 81       	ld	r18, Z
    2d3a:	24 27       	eor	r18, r20
    2d3c:	a2 2e       	mov	r10, r18
    2d3e:	8c 01       	movw	r16, r24
    2d40:	00 51       	subi	r16, 0x10	; 16
    2d42:	11 09       	sbc	r17, r1
    2d44:	9c 01       	movw	r18, r24
    2d46:	c9 01       	movw	r24, r18
    2d48:	01 96       	adiw	r24, 0x01	; 1
    2d4a:	6a 2d       	mov	r22, r10
    2d4c:	a8 01       	movw	r20, r16
    2d4e:	8a 01       	movw	r16, r20
    2d50:	0f 5f       	subi	r16, 0xFF	; 255
    2d52:	1f 4f       	sbci	r17, 0xFF	; 255
    2d54:	fa 01       	movw	r30, r20
    2d56:	40 81       	ld	r20, Z
    2d58:	46 27       	eor	r20, r22
    2d5a:	f9 01       	movw	r30, r18
    2d5c:	40 83       	st	Z, r20
    2d5e:	9c 01       	movw	r18, r24
    2d60:	c9 01       	movw	r24, r18
    2d62:	01 96       	adiw	r24, 0x01	; 1
    2d64:	6b 2d       	mov	r22, r11
    2d66:	a8 01       	movw	r20, r16
    2d68:	8a 01       	movw	r16, r20
    2d6a:	0f 5f       	subi	r16, 0xFF	; 255
    2d6c:	1f 4f       	sbci	r17, 0xFF	; 255
    2d6e:	fa 01       	movw	r30, r20
    2d70:	40 81       	ld	r20, Z
    2d72:	46 27       	eor	r20, r22
    2d74:	f9 01       	movw	r30, r18
    2d76:	40 83       	st	Z, r20
    2d78:	9c 01       	movw	r18, r24
    2d7a:	c9 01       	movw	r24, r18
    2d7c:	01 96       	adiw	r24, 0x01	; 1
    2d7e:	6c 2d       	mov	r22, r12
    2d80:	a8 01       	movw	r20, r16
    2d82:	8a 01       	movw	r16, r20
    2d84:	0f 5f       	subi	r16, 0xFF	; 255
    2d86:	1f 4f       	sbci	r17, 0xFF	; 255
    2d88:	fa 01       	movw	r30, r20
    2d8a:	40 81       	ld	r20, Z
    2d8c:	46 27       	eor	r20, r22
    2d8e:	f9 01       	movw	r30, r18
    2d90:	40 83       	st	Z, r20
    2d92:	9c 01       	movw	r18, r24
    2d94:	c9 01       	movw	r24, r18
    2d96:	01 96       	adiw	r24, 0x01	; 1
    2d98:	6d 2d       	mov	r22, r13
    2d9a:	a8 01       	movw	r20, r16
    2d9c:	8a 01       	movw	r16, r20
    2d9e:	0f 5f       	subi	r16, 0xFF	; 255
    2da0:	1f 4f       	sbci	r17, 0xFF	; 255
    2da2:	fa 01       	movw	r30, r20
    2da4:	40 81       	ld	r20, Z
    2da6:	46 27       	eor	r20, r22
    2da8:	f9 01       	movw	r30, r18
    2daa:	40 83       	st	Z, r20
    2dac:	9c 01       	movw	r18, r24
    2dae:	c9 01       	movw	r24, r18
    2db0:	01 96       	adiw	r24, 0x01	; 1
    2db2:	a7 01       	movw	r20, r14
    2db4:	7a 01       	movw	r14, r20
    2db6:	ff ef       	ldi	r31, 0xFF	; 255
    2db8:	ef 1a       	sub	r14, r31
    2dba:	ff 0a       	sbc	r15, r31
    2dbc:	fa 01       	movw	r30, r20
    2dbe:	60 81       	ld	r22, Z
    2dc0:	a8 01       	movw	r20, r16
    2dc2:	8a 01       	movw	r16, r20
    2dc4:	0f 5f       	subi	r16, 0xFF	; 255
    2dc6:	1f 4f       	sbci	r17, 0xFF	; 255
    2dc8:	fa 01       	movw	r30, r20
    2dca:	40 81       	ld	r20, Z
    2dcc:	46 27       	eor	r20, r22
    2dce:	f9 01       	movw	r30, r18
    2dd0:	40 83       	st	Z, r20
    2dd2:	9c 01       	movw	r18, r24
    2dd4:	c9 01       	movw	r24, r18
    2dd6:	01 96       	adiw	r24, 0x01	; 1
    2dd8:	a7 01       	movw	r20, r14
    2dda:	7a 01       	movw	r14, r20
    2ddc:	ff ef       	ldi	r31, 0xFF	; 255
    2dde:	ef 1a       	sub	r14, r31
    2de0:	ff 0a       	sbc	r15, r31
    2de2:	fa 01       	movw	r30, r20
    2de4:	60 81       	ld	r22, Z
    2de6:	a8 01       	movw	r20, r16
    2de8:	8a 01       	movw	r16, r20
    2dea:	0f 5f       	subi	r16, 0xFF	; 255
    2dec:	1f 4f       	sbci	r17, 0xFF	; 255
    2dee:	fa 01       	movw	r30, r20
    2df0:	40 81       	ld	r20, Z
    2df2:	46 27       	eor	r20, r22
    2df4:	f9 01       	movw	r30, r18
    2df6:	40 83       	st	Z, r20
    2df8:	9c 01       	movw	r18, r24
    2dfa:	c9 01       	movw	r24, r18
    2dfc:	01 96       	adiw	r24, 0x01	; 1
    2dfe:	a7 01       	movw	r20, r14
    2e00:	7a 01       	movw	r14, r20
    2e02:	ff ef       	ldi	r31, 0xFF	; 255
    2e04:	ef 1a       	sub	r14, r31
    2e06:	ff 0a       	sbc	r15, r31
    2e08:	fa 01       	movw	r30, r20
    2e0a:	60 81       	ld	r22, Z
    2e0c:	a8 01       	movw	r20, r16
    2e0e:	8a 01       	movw	r16, r20
    2e10:	0f 5f       	subi	r16, 0xFF	; 255
    2e12:	1f 4f       	sbci	r17, 0xFF	; 255
    2e14:	fa 01       	movw	r30, r20
    2e16:	40 81       	ld	r20, Z
    2e18:	46 27       	eor	r20, r22
    2e1a:	f9 01       	movw	r30, r18
    2e1c:	40 83       	st	Z, r20
    2e1e:	9c 01       	movw	r18, r24
    2e20:	c9 01       	movw	r24, r18
    2e22:	01 96       	adiw	r24, 0x01	; 1
    2e24:	a7 01       	movw	r20, r14
    2e26:	7a 01       	movw	r14, r20
    2e28:	ff ef       	ldi	r31, 0xFF	; 255
    2e2a:	ef 1a       	sub	r14, r31
    2e2c:	ff 0a       	sbc	r15, r31
    2e2e:	fa 01       	movw	r30, r20
    2e30:	60 81       	ld	r22, Z
    2e32:	a8 01       	movw	r20, r16
    2e34:	8a 01       	movw	r16, r20
    2e36:	0f 5f       	subi	r16, 0xFF	; 255
    2e38:	1f 4f       	sbci	r17, 0xFF	; 255
    2e3a:	fa 01       	movw	r30, r20
    2e3c:	40 81       	ld	r20, Z
    2e3e:	46 27       	eor	r20, r22
    2e40:	f9 01       	movw	r30, r18
    2e42:	40 83       	st	Z, r20
    2e44:	9c 01       	movw	r18, r24
    2e46:	c9 01       	movw	r24, r18
    2e48:	01 96       	adiw	r24, 0x01	; 1
    2e4a:	a7 01       	movw	r20, r14
    2e4c:	7a 01       	movw	r14, r20
    2e4e:	ff ef       	ldi	r31, 0xFF	; 255
    2e50:	ef 1a       	sub	r14, r31
    2e52:	ff 0a       	sbc	r15, r31
    2e54:	fa 01       	movw	r30, r20
    2e56:	60 81       	ld	r22, Z
    2e58:	a8 01       	movw	r20, r16
    2e5a:	8a 01       	movw	r16, r20
    2e5c:	0f 5f       	subi	r16, 0xFF	; 255
    2e5e:	1f 4f       	sbci	r17, 0xFF	; 255
    2e60:	fa 01       	movw	r30, r20
    2e62:	40 81       	ld	r20, Z
    2e64:	46 27       	eor	r20, r22
    2e66:	f9 01       	movw	r30, r18
    2e68:	40 83       	st	Z, r20
    2e6a:	9c 01       	movw	r18, r24
    2e6c:	c9 01       	movw	r24, r18
    2e6e:	01 96       	adiw	r24, 0x01	; 1
    2e70:	a7 01       	movw	r20, r14
    2e72:	7a 01       	movw	r14, r20
    2e74:	ff ef       	ldi	r31, 0xFF	; 255
    2e76:	ef 1a       	sub	r14, r31
    2e78:	ff 0a       	sbc	r15, r31
    2e7a:	fa 01       	movw	r30, r20
    2e7c:	60 81       	ld	r22, Z
    2e7e:	a8 01       	movw	r20, r16
    2e80:	8a 01       	movw	r16, r20
    2e82:	0f 5f       	subi	r16, 0xFF	; 255
    2e84:	1f 4f       	sbci	r17, 0xFF	; 255
    2e86:	fa 01       	movw	r30, r20
    2e88:	40 81       	ld	r20, Z
    2e8a:	46 27       	eor	r20, r22
    2e8c:	f9 01       	movw	r30, r18
    2e8e:	40 83       	st	Z, r20
    2e90:	9c 01       	movw	r18, r24
    2e92:	c9 01       	movw	r24, r18
    2e94:	01 96       	adiw	r24, 0x01	; 1
    2e96:	a7 01       	movw	r20, r14
    2e98:	7a 01       	movw	r14, r20
    2e9a:	ff ef       	ldi	r31, 0xFF	; 255
    2e9c:	ef 1a       	sub	r14, r31
    2e9e:	ff 0a       	sbc	r15, r31
    2ea0:	fa 01       	movw	r30, r20
    2ea2:	60 81       	ld	r22, Z
    2ea4:	a8 01       	movw	r20, r16
    2ea6:	8a 01       	movw	r16, r20
    2ea8:	0f 5f       	subi	r16, 0xFF	; 255
    2eaa:	1f 4f       	sbci	r17, 0xFF	; 255
    2eac:	fa 01       	movw	r30, r20
    2eae:	40 81       	ld	r20, Z
    2eb0:	46 27       	eor	r20, r22
    2eb2:	f9 01       	movw	r30, r18
    2eb4:	40 83       	st	Z, r20
    2eb6:	9c 01       	movw	r18, r24
    2eb8:	c9 01       	movw	r24, r18
    2eba:	01 96       	adiw	r24, 0x01	; 1
    2ebc:	a7 01       	movw	r20, r14
    2ebe:	7a 01       	movw	r14, r20
    2ec0:	ff ef       	ldi	r31, 0xFF	; 255
    2ec2:	ef 1a       	sub	r14, r31
    2ec4:	ff 0a       	sbc	r15, r31
    2ec6:	fa 01       	movw	r30, r20
    2ec8:	60 81       	ld	r22, Z
    2eca:	a8 01       	movw	r20, r16
    2ecc:	8a 01       	movw	r16, r20
    2ece:	0f 5f       	subi	r16, 0xFF	; 255
    2ed0:	1f 4f       	sbci	r17, 0xFF	; 255
    2ed2:	fa 01       	movw	r30, r20
    2ed4:	40 81       	ld	r20, Z
    2ed6:	46 27       	eor	r20, r22
    2ed8:	f9 01       	movw	r30, r18
    2eda:	40 83       	st	Z, r20
    2edc:	9c 01       	movw	r18, r24
    2ede:	c9 01       	movw	r24, r18
    2ee0:	01 96       	adiw	r24, 0x01	; 1
    2ee2:	a7 01       	movw	r20, r14
    2ee4:	7a 01       	movw	r14, r20
    2ee6:	ff ef       	ldi	r31, 0xFF	; 255
    2ee8:	ef 1a       	sub	r14, r31
    2eea:	ff 0a       	sbc	r15, r31
    2eec:	fa 01       	movw	r30, r20
    2eee:	60 81       	ld	r22, Z
    2ef0:	a8 01       	movw	r20, r16
    2ef2:	8a 01       	movw	r16, r20
    2ef4:	0f 5f       	subi	r16, 0xFF	; 255
    2ef6:	1f 4f       	sbci	r17, 0xFF	; 255
    2ef8:	fa 01       	movw	r30, r20
    2efa:	40 81       	ld	r20, Z
    2efc:	46 27       	eor	r20, r22
    2efe:	f9 01       	movw	r30, r18
    2f00:	40 83       	st	Z, r20
    2f02:	9c 01       	movw	r18, r24
    2f04:	c9 01       	movw	r24, r18
    2f06:	01 96       	adiw	r24, 0x01	; 1
    2f08:	a7 01       	movw	r20, r14
    2f0a:	7a 01       	movw	r14, r20
    2f0c:	ff ef       	ldi	r31, 0xFF	; 255
    2f0e:	ef 1a       	sub	r14, r31
    2f10:	ff 0a       	sbc	r15, r31
    2f12:	fa 01       	movw	r30, r20
    2f14:	60 81       	ld	r22, Z
    2f16:	a8 01       	movw	r20, r16
    2f18:	8a 01       	movw	r16, r20
    2f1a:	0f 5f       	subi	r16, 0xFF	; 255
    2f1c:	1f 4f       	sbci	r17, 0xFF	; 255
    2f1e:	fa 01       	movw	r30, r20
    2f20:	40 81       	ld	r20, Z
    2f22:	46 27       	eor	r20, r22
    2f24:	f9 01       	movw	r30, r18
    2f26:	40 83       	st	Z, r20
    2f28:	9c 01       	movw	r18, r24
    2f2a:	c9 01       	movw	r24, r18
    2f2c:	01 96       	adiw	r24, 0x01	; 1
    2f2e:	a7 01       	movw	r20, r14
    2f30:	7a 01       	movw	r14, r20
    2f32:	ff ef       	ldi	r31, 0xFF	; 255
    2f34:	ef 1a       	sub	r14, r31
    2f36:	ff 0a       	sbc	r15, r31
    2f38:	fa 01       	movw	r30, r20
    2f3a:	60 81       	ld	r22, Z
    2f3c:	a8 01       	movw	r20, r16
    2f3e:	8a 01       	movw	r16, r20
    2f40:	0f 5f       	subi	r16, 0xFF	; 255
    2f42:	1f 4f       	sbci	r17, 0xFF	; 255
    2f44:	fa 01       	movw	r30, r20
    2f46:	40 81       	ld	r20, Z
    2f48:	46 27       	eor	r20, r22
    2f4a:	f9 01       	movw	r30, r18
    2f4c:	40 83       	st	Z, r20
    2f4e:	9c 01       	movw	r18, r24
    2f50:	c9 01       	movw	r24, r18
    2f52:	01 96       	adiw	r24, 0x01	; 1
    2f54:	a7 01       	movw	r20, r14
    2f56:	7a 01       	movw	r14, r20
    2f58:	ff ef       	ldi	r31, 0xFF	; 255
    2f5a:	ef 1a       	sub	r14, r31
    2f5c:	ff 0a       	sbc	r15, r31
    2f5e:	fa 01       	movw	r30, r20
    2f60:	60 81       	ld	r22, Z
    2f62:	a8 01       	movw	r20, r16
    2f64:	8a 01       	movw	r16, r20
    2f66:	0f 5f       	subi	r16, 0xFF	; 255
    2f68:	1f 4f       	sbci	r17, 0xFF	; 255
    2f6a:	fa 01       	movw	r30, r20
    2f6c:	40 81       	ld	r20, Z
    2f6e:	46 27       	eor	r20, r22
    2f70:	f9 01       	movw	r30, r18
    2f72:	40 83       	st	Z, r20
    2f74:	97 01       	movw	r18, r14
    2f76:	79 01       	movw	r14, r18
    2f78:	ff ef       	ldi	r31, 0xFF	; 255
    2f7a:	ef 1a       	sub	r14, r31
    2f7c:	ff 0a       	sbc	r15, r31
    2f7e:	f9 01       	movw	r30, r18
    2f80:	20 81       	ld	r18, Z
    2f82:	22 2f       	mov	r18, r18
    2f84:	30 e0       	ldi	r19, 0x00	; 0
    2f86:	20 50       	subi	r18, 0x00	; 0
    2f88:	3e 4f       	sbci	r19, 0xFE	; 254
    2f8a:	f9 01       	movw	r30, r18
    2f8c:	20 81       	ld	r18, Z
    2f8e:	d2 2e       	mov	r13, r18
    2f90:	97 01       	movw	r18, r14
    2f92:	79 01       	movw	r14, r18
    2f94:	ff ef       	ldi	r31, 0xFF	; 255
    2f96:	ef 1a       	sub	r14, r31
    2f98:	ff 0a       	sbc	r15, r31
    2f9a:	f9 01       	movw	r30, r18
    2f9c:	20 81       	ld	r18, Z
    2f9e:	22 2f       	mov	r18, r18
    2fa0:	30 e0       	ldi	r19, 0x00	; 0
    2fa2:	20 50       	subi	r18, 0x00	; 0
    2fa4:	3e 4f       	sbci	r19, 0xFE	; 254
    2fa6:	f9 01       	movw	r30, r18
    2fa8:	20 81       	ld	r18, Z
    2faa:	a2 2e       	mov	r10, r18
    2fac:	97 01       	movw	r18, r14
    2fae:	79 01       	movw	r14, r18
    2fb0:	ff ef       	ldi	r31, 0xFF	; 255
    2fb2:	ef 1a       	sub	r14, r31
    2fb4:	ff 0a       	sbc	r15, r31
    2fb6:	f9 01       	movw	r30, r18
    2fb8:	20 81       	ld	r18, Z
    2fba:	22 2f       	mov	r18, r18
    2fbc:	30 e0       	ldi	r19, 0x00	; 0
    2fbe:	20 50       	subi	r18, 0x00	; 0
    2fc0:	3e 4f       	sbci	r19, 0xFE	; 254
    2fc2:	f9 01       	movw	r30, r18
    2fc4:	20 81       	ld	r18, Z
    2fc6:	b2 2e       	mov	r11, r18
    2fc8:	97 01       	movw	r18, r14
    2fca:	79 01       	movw	r14, r18
    2fcc:	ff ef       	ldi	r31, 0xFF	; 255
    2fce:	ef 1a       	sub	r14, r31
    2fd0:	ff 0a       	sbc	r15, r31
    2fd2:	f9 01       	movw	r30, r18
    2fd4:	20 81       	ld	r18, Z
    2fd6:	22 2f       	mov	r18, r18
    2fd8:	30 e0       	ldi	r19, 0x00	; 0
    2fda:	20 50       	subi	r18, 0x00	; 0
    2fdc:	3e 4f       	sbci	r19, 0xFE	; 254
    2fde:	f9 01       	movw	r30, r18
    2fe0:	20 81       	ld	r18, Z
    2fe2:	c2 2e       	mov	r12, r18
    2fe4:	4a 2d       	mov	r20, r10
    2fe6:	29 2d       	mov	r18, r9
    2fe8:	30 e0       	ldi	r19, 0x00	; 0
    2fea:	20 50       	subi	r18, 0x00	; 0
    2fec:	3d 4f       	sbci	r19, 0xFD	; 253
    2fee:	f9 01       	movw	r30, r18
    2ff0:	20 81       	ld	r18, Z
    2ff2:	24 27       	eor	r18, r20
    2ff4:	a2 2e       	mov	r10, r18
    2ff6:	8c 01       	movw	r16, r24
    2ff8:	00 51       	subi	r16, 0x10	; 16
    2ffa:	11 09       	sbc	r17, r1
    2ffc:	9c 01       	movw	r18, r24
    2ffe:	c9 01       	movw	r24, r18
    3000:	01 96       	adiw	r24, 0x01	; 1
    3002:	6a 2d       	mov	r22, r10
    3004:	a8 01       	movw	r20, r16
    3006:	8a 01       	movw	r16, r20
    3008:	0f 5f       	subi	r16, 0xFF	; 255
    300a:	1f 4f       	sbci	r17, 0xFF	; 255
    300c:	fa 01       	movw	r30, r20
    300e:	40 81       	ld	r20, Z
    3010:	46 27       	eor	r20, r22
    3012:	f9 01       	movw	r30, r18
    3014:	40 83       	st	Z, r20
    3016:	9c 01       	movw	r18, r24
    3018:	c9 01       	movw	r24, r18
    301a:	01 96       	adiw	r24, 0x01	; 1
    301c:	6b 2d       	mov	r22, r11
    301e:	a8 01       	movw	r20, r16
    3020:	8a 01       	movw	r16, r20
    3022:	0f 5f       	subi	r16, 0xFF	; 255
    3024:	1f 4f       	sbci	r17, 0xFF	; 255
    3026:	fa 01       	movw	r30, r20
    3028:	40 81       	ld	r20, Z
    302a:	46 27       	eor	r20, r22
    302c:	f9 01       	movw	r30, r18
    302e:	40 83       	st	Z, r20
    3030:	9c 01       	movw	r18, r24
    3032:	c9 01       	movw	r24, r18
    3034:	01 96       	adiw	r24, 0x01	; 1
    3036:	6c 2d       	mov	r22, r12
    3038:	a8 01       	movw	r20, r16
    303a:	8a 01       	movw	r16, r20
    303c:	0f 5f       	subi	r16, 0xFF	; 255
    303e:	1f 4f       	sbci	r17, 0xFF	; 255
    3040:	fa 01       	movw	r30, r20
    3042:	40 81       	ld	r20, Z
    3044:	46 27       	eor	r20, r22
    3046:	f9 01       	movw	r30, r18
    3048:	40 83       	st	Z, r20
    304a:	9c 01       	movw	r18, r24
    304c:	c9 01       	movw	r24, r18
    304e:	01 96       	adiw	r24, 0x01	; 1
    3050:	6d 2d       	mov	r22, r13
    3052:	a8 01       	movw	r20, r16
    3054:	8a 01       	movw	r16, r20
    3056:	0f 5f       	subi	r16, 0xFF	; 255
    3058:	1f 4f       	sbci	r17, 0xFF	; 255
    305a:	fa 01       	movw	r30, r20
    305c:	40 81       	ld	r20, Z
    305e:	46 27       	eor	r20, r22
    3060:	f9 01       	movw	r30, r18
    3062:	40 83       	st	Z, r20
    3064:	9c 01       	movw	r18, r24
    3066:	c9 01       	movw	r24, r18
    3068:	01 96       	adiw	r24, 0x01	; 1
    306a:	a7 01       	movw	r20, r14
    306c:	7a 01       	movw	r14, r20
    306e:	ff ef       	ldi	r31, 0xFF	; 255
    3070:	ef 1a       	sub	r14, r31
    3072:	ff 0a       	sbc	r15, r31
    3074:	fa 01       	movw	r30, r20
    3076:	60 81       	ld	r22, Z
    3078:	a8 01       	movw	r20, r16
    307a:	8a 01       	movw	r16, r20
    307c:	0f 5f       	subi	r16, 0xFF	; 255
    307e:	1f 4f       	sbci	r17, 0xFF	; 255
    3080:	fa 01       	movw	r30, r20
    3082:	40 81       	ld	r20, Z
    3084:	46 27       	eor	r20, r22
    3086:	f9 01       	movw	r30, r18
    3088:	40 83       	st	Z, r20
    308a:	9c 01       	movw	r18, r24
    308c:	c9 01       	movw	r24, r18
    308e:	01 96       	adiw	r24, 0x01	; 1
    3090:	a7 01       	movw	r20, r14
    3092:	7a 01       	movw	r14, r20
    3094:	ff ef       	ldi	r31, 0xFF	; 255
    3096:	ef 1a       	sub	r14, r31
    3098:	ff 0a       	sbc	r15, r31
    309a:	fa 01       	movw	r30, r20
    309c:	60 81       	ld	r22, Z
    309e:	a8 01       	movw	r20, r16
    30a0:	8a 01       	movw	r16, r20
    30a2:	0f 5f       	subi	r16, 0xFF	; 255
    30a4:	1f 4f       	sbci	r17, 0xFF	; 255
    30a6:	fa 01       	movw	r30, r20
    30a8:	40 81       	ld	r20, Z
    30aa:	46 27       	eor	r20, r22
    30ac:	f9 01       	movw	r30, r18
    30ae:	40 83       	st	Z, r20
    30b0:	9c 01       	movw	r18, r24
    30b2:	c9 01       	movw	r24, r18
    30b4:	01 96       	adiw	r24, 0x01	; 1
    30b6:	a7 01       	movw	r20, r14
    30b8:	7a 01       	movw	r14, r20
    30ba:	ff ef       	ldi	r31, 0xFF	; 255
    30bc:	ef 1a       	sub	r14, r31
    30be:	ff 0a       	sbc	r15, r31
    30c0:	fa 01       	movw	r30, r20
    30c2:	60 81       	ld	r22, Z
    30c4:	a8 01       	movw	r20, r16
    30c6:	8a 01       	movw	r16, r20
    30c8:	0f 5f       	subi	r16, 0xFF	; 255
    30ca:	1f 4f       	sbci	r17, 0xFF	; 255
    30cc:	fa 01       	movw	r30, r20
    30ce:	40 81       	ld	r20, Z
    30d0:	46 27       	eor	r20, r22
    30d2:	f9 01       	movw	r30, r18
    30d4:	40 83       	st	Z, r20
    30d6:	9c 01       	movw	r18, r24
    30d8:	c9 01       	movw	r24, r18
    30da:	01 96       	adiw	r24, 0x01	; 1
    30dc:	a7 01       	movw	r20, r14
    30de:	7a 01       	movw	r14, r20
    30e0:	ff ef       	ldi	r31, 0xFF	; 255
    30e2:	ef 1a       	sub	r14, r31
    30e4:	ff 0a       	sbc	r15, r31
    30e6:	fa 01       	movw	r30, r20
    30e8:	60 81       	ld	r22, Z
    30ea:	a8 01       	movw	r20, r16
    30ec:	8a 01       	movw	r16, r20
    30ee:	0f 5f       	subi	r16, 0xFF	; 255
    30f0:	1f 4f       	sbci	r17, 0xFF	; 255
    30f2:	fa 01       	movw	r30, r20
    30f4:	40 81       	ld	r20, Z
    30f6:	46 27       	eor	r20, r22
    30f8:	f9 01       	movw	r30, r18
    30fa:	40 83       	st	Z, r20
    30fc:	9c 01       	movw	r18, r24
    30fe:	c9 01       	movw	r24, r18
    3100:	01 96       	adiw	r24, 0x01	; 1
    3102:	a7 01       	movw	r20, r14
    3104:	7a 01       	movw	r14, r20
    3106:	ff ef       	ldi	r31, 0xFF	; 255
    3108:	ef 1a       	sub	r14, r31
    310a:	ff 0a       	sbc	r15, r31
    310c:	fa 01       	movw	r30, r20
    310e:	60 81       	ld	r22, Z
    3110:	a8 01       	movw	r20, r16
    3112:	8a 01       	movw	r16, r20
    3114:	0f 5f       	subi	r16, 0xFF	; 255
    3116:	1f 4f       	sbci	r17, 0xFF	; 255
    3118:	fa 01       	movw	r30, r20
    311a:	40 81       	ld	r20, Z
    311c:	46 27       	eor	r20, r22
    311e:	f9 01       	movw	r30, r18
    3120:	40 83       	st	Z, r20
    3122:	9c 01       	movw	r18, r24
    3124:	c9 01       	movw	r24, r18
    3126:	01 96       	adiw	r24, 0x01	; 1
    3128:	a7 01       	movw	r20, r14
    312a:	7a 01       	movw	r14, r20
    312c:	ff ef       	ldi	r31, 0xFF	; 255
    312e:	ef 1a       	sub	r14, r31
    3130:	ff 0a       	sbc	r15, r31
    3132:	fa 01       	movw	r30, r20
    3134:	60 81       	ld	r22, Z
    3136:	a8 01       	movw	r20, r16
    3138:	8a 01       	movw	r16, r20
    313a:	0f 5f       	subi	r16, 0xFF	; 255
    313c:	1f 4f       	sbci	r17, 0xFF	; 255
    313e:	fa 01       	movw	r30, r20
    3140:	40 81       	ld	r20, Z
    3142:	46 27       	eor	r20, r22
    3144:	f9 01       	movw	r30, r18
    3146:	40 83       	st	Z, r20
    3148:	9c 01       	movw	r18, r24
    314a:	c9 01       	movw	r24, r18
    314c:	01 96       	adiw	r24, 0x01	; 1
    314e:	a7 01       	movw	r20, r14
    3150:	7a 01       	movw	r14, r20
    3152:	ff ef       	ldi	r31, 0xFF	; 255
    3154:	ef 1a       	sub	r14, r31
    3156:	ff 0a       	sbc	r15, r31
    3158:	fa 01       	movw	r30, r20
    315a:	60 81       	ld	r22, Z
    315c:	a8 01       	movw	r20, r16
    315e:	8a 01       	movw	r16, r20
    3160:	0f 5f       	subi	r16, 0xFF	; 255
    3162:	1f 4f       	sbci	r17, 0xFF	; 255
    3164:	fa 01       	movw	r30, r20
    3166:	40 81       	ld	r20, Z
    3168:	46 27       	eor	r20, r22
    316a:	f9 01       	movw	r30, r18
    316c:	40 83       	st	Z, r20
    316e:	9c 01       	movw	r18, r24
    3170:	c9 01       	movw	r24, r18
    3172:	01 96       	adiw	r24, 0x01	; 1
    3174:	a7 01       	movw	r20, r14
    3176:	7a 01       	movw	r14, r20
    3178:	ff ef       	ldi	r31, 0xFF	; 255
    317a:	ef 1a       	sub	r14, r31
    317c:	ff 0a       	sbc	r15, r31
    317e:	fa 01       	movw	r30, r20
    3180:	60 81       	ld	r22, Z
    3182:	a8 01       	movw	r20, r16
    3184:	8a 01       	movw	r16, r20
    3186:	0f 5f       	subi	r16, 0xFF	; 255
    3188:	1f 4f       	sbci	r17, 0xFF	; 255
    318a:	fa 01       	movw	r30, r20
    318c:	40 81       	ld	r20, Z
    318e:	46 27       	eor	r20, r22
    3190:	f9 01       	movw	r30, r18
    3192:	40 83       	st	Z, r20
    3194:	9c 01       	movw	r18, r24
    3196:	c9 01       	movw	r24, r18
    3198:	01 96       	adiw	r24, 0x01	; 1
    319a:	a7 01       	movw	r20, r14
    319c:	7a 01       	movw	r14, r20
    319e:	ff ef       	ldi	r31, 0xFF	; 255
    31a0:	ef 1a       	sub	r14, r31
    31a2:	ff 0a       	sbc	r15, r31
    31a4:	fa 01       	movw	r30, r20
    31a6:	60 81       	ld	r22, Z
    31a8:	a8 01       	movw	r20, r16
    31aa:	8a 01       	movw	r16, r20
    31ac:	0f 5f       	subi	r16, 0xFF	; 255
    31ae:	1f 4f       	sbci	r17, 0xFF	; 255
    31b0:	fa 01       	movw	r30, r20
    31b2:	40 81       	ld	r20, Z
    31b4:	46 27       	eor	r20, r22
    31b6:	f9 01       	movw	r30, r18
    31b8:	40 83       	st	Z, r20
    31ba:	9c 01       	movw	r18, r24
    31bc:	c9 01       	movw	r24, r18
    31be:	01 96       	adiw	r24, 0x01	; 1
    31c0:	a7 01       	movw	r20, r14
    31c2:	7a 01       	movw	r14, r20
    31c4:	ff ef       	ldi	r31, 0xFF	; 255
    31c6:	ef 1a       	sub	r14, r31
    31c8:	ff 0a       	sbc	r15, r31
    31ca:	fa 01       	movw	r30, r20
    31cc:	60 81       	ld	r22, Z
    31ce:	a8 01       	movw	r20, r16
    31d0:	8a 01       	movw	r16, r20
    31d2:	0f 5f       	subi	r16, 0xFF	; 255
    31d4:	1f 4f       	sbci	r17, 0xFF	; 255
    31d6:	fa 01       	movw	r30, r20
    31d8:	40 81       	ld	r20, Z
    31da:	46 27       	eor	r20, r22
    31dc:	f9 01       	movw	r30, r18
    31de:	40 83       	st	Z, r20
    31e0:	9c 01       	movw	r18, r24
    31e2:	c9 01       	movw	r24, r18
    31e4:	01 96       	adiw	r24, 0x01	; 1
    31e6:	a7 01       	movw	r20, r14
    31e8:	7a 01       	movw	r14, r20
    31ea:	ff ef       	ldi	r31, 0xFF	; 255
    31ec:	ef 1a       	sub	r14, r31
    31ee:	ff 0a       	sbc	r15, r31
    31f0:	fa 01       	movw	r30, r20
    31f2:	60 81       	ld	r22, Z
    31f4:	a8 01       	movw	r20, r16
    31f6:	8a 01       	movw	r16, r20
    31f8:	0f 5f       	subi	r16, 0xFF	; 255
    31fa:	1f 4f       	sbci	r17, 0xFF	; 255
    31fc:	fa 01       	movw	r30, r20
    31fe:	40 81       	ld	r20, Z
    3200:	46 27       	eor	r20, r22
    3202:	f9 01       	movw	r30, r18
    3204:	40 83       	st	Z, r20
    3206:	9c 01       	movw	r18, r24
    3208:	c9 01       	movw	r24, r18
    320a:	01 96       	adiw	r24, 0x01	; 1
    320c:	a7 01       	movw	r20, r14
    320e:	7a 01       	movw	r14, r20
    3210:	ff ef       	ldi	r31, 0xFF	; 255
    3212:	ef 1a       	sub	r14, r31
    3214:	ff 0a       	sbc	r15, r31
    3216:	fa 01       	movw	r30, r20
    3218:	60 81       	ld	r22, Z
    321a:	a8 01       	movw	r20, r16
    321c:	8a 01       	movw	r16, r20
    321e:	0f 5f       	subi	r16, 0xFF	; 255
    3220:	1f 4f       	sbci	r17, 0xFF	; 255
    3222:	fa 01       	movw	r30, r20
    3224:	40 81       	ld	r20, Z
    3226:	46 27       	eor	r20, r22
    3228:	f9 01       	movw	r30, r18
    322a:	40 83       	st	Z, r20
    322c:	97 01       	movw	r18, r14
    322e:	79 01       	movw	r14, r18
    3230:	ff ef       	ldi	r31, 0xFF	; 255
    3232:	ef 1a       	sub	r14, r31
    3234:	ff 0a       	sbc	r15, r31
    3236:	f9 01       	movw	r30, r18
    3238:	20 81       	ld	r18, Z
    323a:	22 2f       	mov	r18, r18
    323c:	30 e0       	ldi	r19, 0x00	; 0
    323e:	20 50       	subi	r18, 0x00	; 0
    3240:	3e 4f       	sbci	r19, 0xFE	; 254
    3242:	f9 01       	movw	r30, r18
    3244:	20 81       	ld	r18, Z
    3246:	d2 2e       	mov	r13, r18
    3248:	97 01       	movw	r18, r14
    324a:	79 01       	movw	r14, r18
    324c:	ff ef       	ldi	r31, 0xFF	; 255
    324e:	ef 1a       	sub	r14, r31
    3250:	ff 0a       	sbc	r15, r31
    3252:	f9 01       	movw	r30, r18
    3254:	20 81       	ld	r18, Z
    3256:	22 2f       	mov	r18, r18
    3258:	30 e0       	ldi	r19, 0x00	; 0
    325a:	20 50       	subi	r18, 0x00	; 0
    325c:	3e 4f       	sbci	r19, 0xFE	; 254
    325e:	f9 01       	movw	r30, r18
    3260:	20 81       	ld	r18, Z
    3262:	a2 2e       	mov	r10, r18
    3264:	97 01       	movw	r18, r14
    3266:	79 01       	movw	r14, r18
    3268:	ff ef       	ldi	r31, 0xFF	; 255
    326a:	ef 1a       	sub	r14, r31
    326c:	ff 0a       	sbc	r15, r31
    326e:	f9 01       	movw	r30, r18
    3270:	20 81       	ld	r18, Z
    3272:	22 2f       	mov	r18, r18
    3274:	30 e0       	ldi	r19, 0x00	; 0
    3276:	20 50       	subi	r18, 0x00	; 0
    3278:	3e 4f       	sbci	r19, 0xFE	; 254
    327a:	f9 01       	movw	r30, r18
    327c:	20 81       	ld	r18, Z
    327e:	b2 2e       	mov	r11, r18
    3280:	97 01       	movw	r18, r14
    3282:	79 01       	movw	r14, r18
    3284:	ff ef       	ldi	r31, 0xFF	; 255
    3286:	ef 1a       	sub	r14, r31
    3288:	ff 0a       	sbc	r15, r31
    328a:	f9 01       	movw	r30, r18
    328c:	20 81       	ld	r18, Z
    328e:	22 2f       	mov	r18, r18
    3290:	30 e0       	ldi	r19, 0x00	; 0
    3292:	20 50       	subi	r18, 0x00	; 0
    3294:	3e 4f       	sbci	r19, 0xFE	; 254
    3296:	f9 01       	movw	r30, r18
    3298:	20 81       	ld	r18, Z
    329a:	c2 2e       	mov	r12, r18
    329c:	4a 2d       	mov	r20, r10
    329e:	29 2d       	mov	r18, r9
    32a0:	30 e0       	ldi	r19, 0x00	; 0
    32a2:	20 50       	subi	r18, 0x00	; 0
    32a4:	3d 4f       	sbci	r19, 0xFD	; 253
    32a6:	f9 01       	movw	r30, r18
    32a8:	20 81       	ld	r18, Z
    32aa:	24 27       	eor	r18, r20
    32ac:	a2 2e       	mov	r10, r18
    32ae:	8c 01       	movw	r16, r24
    32b0:	00 51       	subi	r16, 0x10	; 16
    32b2:	11 09       	sbc	r17, r1
    32b4:	9c 01       	movw	r18, r24
    32b6:	c9 01       	movw	r24, r18
    32b8:	01 96       	adiw	r24, 0x01	; 1
    32ba:	6a 2d       	mov	r22, r10
    32bc:	a8 01       	movw	r20, r16
    32be:	8a 01       	movw	r16, r20
    32c0:	0f 5f       	subi	r16, 0xFF	; 255
    32c2:	1f 4f       	sbci	r17, 0xFF	; 255
    32c4:	fa 01       	movw	r30, r20
    32c6:	40 81       	ld	r20, Z
    32c8:	46 27       	eor	r20, r22
    32ca:	f9 01       	movw	r30, r18
    32cc:	40 83       	st	Z, r20
    32ce:	9c 01       	movw	r18, r24
    32d0:	c9 01       	movw	r24, r18
    32d2:	01 96       	adiw	r24, 0x01	; 1
    32d4:	6b 2d       	mov	r22, r11
    32d6:	a8 01       	movw	r20, r16
    32d8:	8a 01       	movw	r16, r20
    32da:	0f 5f       	subi	r16, 0xFF	; 255
    32dc:	1f 4f       	sbci	r17, 0xFF	; 255
    32de:	fa 01       	movw	r30, r20
    32e0:	40 81       	ld	r20, Z
    32e2:	46 27       	eor	r20, r22
    32e4:	f9 01       	movw	r30, r18
    32e6:	40 83       	st	Z, r20
    32e8:	9c 01       	movw	r18, r24
    32ea:	c9 01       	movw	r24, r18
    32ec:	01 96       	adiw	r24, 0x01	; 1
    32ee:	6c 2d       	mov	r22, r12
    32f0:	a8 01       	movw	r20, r16
    32f2:	8a 01       	movw	r16, r20
    32f4:	0f 5f       	subi	r16, 0xFF	; 255
    32f6:	1f 4f       	sbci	r17, 0xFF	; 255
    32f8:	fa 01       	movw	r30, r20
    32fa:	40 81       	ld	r20, Z
    32fc:	46 27       	eor	r20, r22
    32fe:	f9 01       	movw	r30, r18
    3300:	40 83       	st	Z, r20
    3302:	9c 01       	movw	r18, r24
    3304:	c9 01       	movw	r24, r18
    3306:	01 96       	adiw	r24, 0x01	; 1
    3308:	6d 2d       	mov	r22, r13
    330a:	a8 01       	movw	r20, r16
    330c:	8a 01       	movw	r16, r20
    330e:	0f 5f       	subi	r16, 0xFF	; 255
    3310:	1f 4f       	sbci	r17, 0xFF	; 255
    3312:	fa 01       	movw	r30, r20
    3314:	40 81       	ld	r20, Z
    3316:	46 27       	eor	r20, r22
    3318:	f9 01       	movw	r30, r18
    331a:	40 83       	st	Z, r20
    331c:	9c 01       	movw	r18, r24
    331e:	c9 01       	movw	r24, r18
    3320:	01 96       	adiw	r24, 0x01	; 1
    3322:	a7 01       	movw	r20, r14
    3324:	7a 01       	movw	r14, r20
    3326:	ff ef       	ldi	r31, 0xFF	; 255
    3328:	ef 1a       	sub	r14, r31
    332a:	ff 0a       	sbc	r15, r31
    332c:	fa 01       	movw	r30, r20
    332e:	60 81       	ld	r22, Z
    3330:	a8 01       	movw	r20, r16
    3332:	8a 01       	movw	r16, r20
    3334:	0f 5f       	subi	r16, 0xFF	; 255
    3336:	1f 4f       	sbci	r17, 0xFF	; 255
    3338:	fa 01       	movw	r30, r20
    333a:	40 81       	ld	r20, Z
    333c:	46 27       	eor	r20, r22
    333e:	f9 01       	movw	r30, r18
    3340:	40 83       	st	Z, r20
    3342:	9c 01       	movw	r18, r24
    3344:	c9 01       	movw	r24, r18
    3346:	01 96       	adiw	r24, 0x01	; 1
    3348:	a7 01       	movw	r20, r14
    334a:	7a 01       	movw	r14, r20
    334c:	ff ef       	ldi	r31, 0xFF	; 255
    334e:	ef 1a       	sub	r14, r31
    3350:	ff 0a       	sbc	r15, r31
    3352:	fa 01       	movw	r30, r20
    3354:	60 81       	ld	r22, Z
    3356:	a8 01       	movw	r20, r16
    3358:	8a 01       	movw	r16, r20
    335a:	0f 5f       	subi	r16, 0xFF	; 255
    335c:	1f 4f       	sbci	r17, 0xFF	; 255
    335e:	fa 01       	movw	r30, r20
    3360:	40 81       	ld	r20, Z
    3362:	46 27       	eor	r20, r22
    3364:	f9 01       	movw	r30, r18
    3366:	40 83       	st	Z, r20
    3368:	9c 01       	movw	r18, r24
    336a:	c9 01       	movw	r24, r18
    336c:	01 96       	adiw	r24, 0x01	; 1
    336e:	a7 01       	movw	r20, r14
    3370:	7a 01       	movw	r14, r20
    3372:	ff ef       	ldi	r31, 0xFF	; 255
    3374:	ef 1a       	sub	r14, r31
    3376:	ff 0a       	sbc	r15, r31
    3378:	fa 01       	movw	r30, r20
    337a:	60 81       	ld	r22, Z
    337c:	a8 01       	movw	r20, r16
    337e:	8a 01       	movw	r16, r20
    3380:	0f 5f       	subi	r16, 0xFF	; 255
    3382:	1f 4f       	sbci	r17, 0xFF	; 255
    3384:	fa 01       	movw	r30, r20
    3386:	40 81       	ld	r20, Z
    3388:	46 27       	eor	r20, r22
    338a:	f9 01       	movw	r30, r18
    338c:	40 83       	st	Z, r20
    338e:	9c 01       	movw	r18, r24
    3390:	c9 01       	movw	r24, r18
    3392:	01 96       	adiw	r24, 0x01	; 1
    3394:	a7 01       	movw	r20, r14
    3396:	7a 01       	movw	r14, r20
    3398:	ff ef       	ldi	r31, 0xFF	; 255
    339a:	ef 1a       	sub	r14, r31
    339c:	ff 0a       	sbc	r15, r31
    339e:	fa 01       	movw	r30, r20
    33a0:	60 81       	ld	r22, Z
    33a2:	a8 01       	movw	r20, r16
    33a4:	8a 01       	movw	r16, r20
    33a6:	0f 5f       	subi	r16, 0xFF	; 255
    33a8:	1f 4f       	sbci	r17, 0xFF	; 255
    33aa:	fa 01       	movw	r30, r20
    33ac:	40 81       	ld	r20, Z
    33ae:	46 27       	eor	r20, r22
    33b0:	f9 01       	movw	r30, r18
    33b2:	40 83       	st	Z, r20
    33b4:	9c 01       	movw	r18, r24
    33b6:	c9 01       	movw	r24, r18
    33b8:	01 96       	adiw	r24, 0x01	; 1
    33ba:	a7 01       	movw	r20, r14
    33bc:	7a 01       	movw	r14, r20
    33be:	ff ef       	ldi	r31, 0xFF	; 255
    33c0:	ef 1a       	sub	r14, r31
    33c2:	ff 0a       	sbc	r15, r31
    33c4:	fa 01       	movw	r30, r20
    33c6:	60 81       	ld	r22, Z
    33c8:	a8 01       	movw	r20, r16
    33ca:	8a 01       	movw	r16, r20
    33cc:	0f 5f       	subi	r16, 0xFF	; 255
    33ce:	1f 4f       	sbci	r17, 0xFF	; 255
    33d0:	fa 01       	movw	r30, r20
    33d2:	40 81       	ld	r20, Z
    33d4:	46 27       	eor	r20, r22
    33d6:	f9 01       	movw	r30, r18
    33d8:	40 83       	st	Z, r20
    33da:	9c 01       	movw	r18, r24
    33dc:	c9 01       	movw	r24, r18
    33de:	01 96       	adiw	r24, 0x01	; 1
    33e0:	a7 01       	movw	r20, r14
    33e2:	7a 01       	movw	r14, r20
    33e4:	ff ef       	ldi	r31, 0xFF	; 255
    33e6:	ef 1a       	sub	r14, r31
    33e8:	ff 0a       	sbc	r15, r31
    33ea:	fa 01       	movw	r30, r20
    33ec:	60 81       	ld	r22, Z
    33ee:	a8 01       	movw	r20, r16
    33f0:	8a 01       	movw	r16, r20
    33f2:	0f 5f       	subi	r16, 0xFF	; 255
    33f4:	1f 4f       	sbci	r17, 0xFF	; 255
    33f6:	fa 01       	movw	r30, r20
    33f8:	40 81       	ld	r20, Z
    33fa:	46 27       	eor	r20, r22
    33fc:	f9 01       	movw	r30, r18
    33fe:	40 83       	st	Z, r20
    3400:	9c 01       	movw	r18, r24
    3402:	c9 01       	movw	r24, r18
    3404:	01 96       	adiw	r24, 0x01	; 1
    3406:	a7 01       	movw	r20, r14
    3408:	7a 01       	movw	r14, r20
    340a:	ff ef       	ldi	r31, 0xFF	; 255
    340c:	ef 1a       	sub	r14, r31
    340e:	ff 0a       	sbc	r15, r31
    3410:	fa 01       	movw	r30, r20
    3412:	60 81       	ld	r22, Z
    3414:	a8 01       	movw	r20, r16
    3416:	8a 01       	movw	r16, r20
    3418:	0f 5f       	subi	r16, 0xFF	; 255
    341a:	1f 4f       	sbci	r17, 0xFF	; 255
    341c:	fa 01       	movw	r30, r20
    341e:	40 81       	ld	r20, Z
    3420:	46 27       	eor	r20, r22
    3422:	f9 01       	movw	r30, r18
    3424:	40 83       	st	Z, r20
    3426:	9c 01       	movw	r18, r24
    3428:	c9 01       	movw	r24, r18
    342a:	01 96       	adiw	r24, 0x01	; 1
    342c:	a7 01       	movw	r20, r14
    342e:	7a 01       	movw	r14, r20
    3430:	ff ef       	ldi	r31, 0xFF	; 255
    3432:	ef 1a       	sub	r14, r31
    3434:	ff 0a       	sbc	r15, r31
    3436:	fa 01       	movw	r30, r20
    3438:	60 81       	ld	r22, Z
    343a:	a8 01       	movw	r20, r16
    343c:	8a 01       	movw	r16, r20
    343e:	0f 5f       	subi	r16, 0xFF	; 255
    3440:	1f 4f       	sbci	r17, 0xFF	; 255
    3442:	fa 01       	movw	r30, r20
    3444:	40 81       	ld	r20, Z
    3446:	46 27       	eor	r20, r22
    3448:	f9 01       	movw	r30, r18
    344a:	40 83       	st	Z, r20
    344c:	9c 01       	movw	r18, r24
    344e:	c9 01       	movw	r24, r18
    3450:	01 96       	adiw	r24, 0x01	; 1
    3452:	a7 01       	movw	r20, r14
    3454:	7a 01       	movw	r14, r20
    3456:	ff ef       	ldi	r31, 0xFF	; 255
    3458:	ef 1a       	sub	r14, r31
    345a:	ff 0a       	sbc	r15, r31
    345c:	fa 01       	movw	r30, r20
    345e:	60 81       	ld	r22, Z
    3460:	a8 01       	movw	r20, r16
    3462:	8a 01       	movw	r16, r20
    3464:	0f 5f       	subi	r16, 0xFF	; 255
    3466:	1f 4f       	sbci	r17, 0xFF	; 255
    3468:	fa 01       	movw	r30, r20
    346a:	40 81       	ld	r20, Z
    346c:	46 27       	eor	r20, r22
    346e:	f9 01       	movw	r30, r18
    3470:	40 83       	st	Z, r20
    3472:	9c 01       	movw	r18, r24
    3474:	c9 01       	movw	r24, r18
    3476:	01 96       	adiw	r24, 0x01	; 1
    3478:	a7 01       	movw	r20, r14
    347a:	7a 01       	movw	r14, r20
    347c:	ff ef       	ldi	r31, 0xFF	; 255
    347e:	ef 1a       	sub	r14, r31
    3480:	ff 0a       	sbc	r15, r31
    3482:	fa 01       	movw	r30, r20
    3484:	60 81       	ld	r22, Z
    3486:	a8 01       	movw	r20, r16
    3488:	8a 01       	movw	r16, r20
    348a:	0f 5f       	subi	r16, 0xFF	; 255
    348c:	1f 4f       	sbci	r17, 0xFF	; 255
    348e:	fa 01       	movw	r30, r20
    3490:	40 81       	ld	r20, Z
    3492:	46 27       	eor	r20, r22
    3494:	f9 01       	movw	r30, r18
    3496:	40 83       	st	Z, r20
    3498:	9c 01       	movw	r18, r24
    349a:	c9 01       	movw	r24, r18
    349c:	01 96       	adiw	r24, 0x01	; 1
    349e:	a7 01       	movw	r20, r14
    34a0:	7a 01       	movw	r14, r20
    34a2:	ff ef       	ldi	r31, 0xFF	; 255
    34a4:	ef 1a       	sub	r14, r31
    34a6:	ff 0a       	sbc	r15, r31
    34a8:	fa 01       	movw	r30, r20
    34aa:	60 81       	ld	r22, Z
    34ac:	a8 01       	movw	r20, r16
    34ae:	8a 01       	movw	r16, r20
    34b0:	0f 5f       	subi	r16, 0xFF	; 255
    34b2:	1f 4f       	sbci	r17, 0xFF	; 255
    34b4:	fa 01       	movw	r30, r20
    34b6:	40 81       	ld	r20, Z
    34b8:	46 27       	eor	r20, r22
    34ba:	f9 01       	movw	r30, r18
    34bc:	40 83       	st	Z, r20
    34be:	9c 01       	movw	r18, r24
    34c0:	c9 01       	movw	r24, r18
    34c2:	01 96       	adiw	r24, 0x01	; 1
    34c4:	a7 01       	movw	r20, r14
    34c6:	7a 01       	movw	r14, r20
    34c8:	ff ef       	ldi	r31, 0xFF	; 255
    34ca:	ef 1a       	sub	r14, r31
    34cc:	ff 0a       	sbc	r15, r31
    34ce:	fa 01       	movw	r30, r20
    34d0:	60 81       	ld	r22, Z
    34d2:	a8 01       	movw	r20, r16
    34d4:	8a 01       	movw	r16, r20
    34d6:	0f 5f       	subi	r16, 0xFF	; 255
    34d8:	1f 4f       	sbci	r17, 0xFF	; 255
    34da:	fa 01       	movw	r30, r20
    34dc:	40 81       	ld	r20, Z
    34de:	46 27       	eor	r20, r22
    34e0:	f9 01       	movw	r30, r18
    34e2:	40 83       	st	Z, r20
    34e4:	97 01       	movw	r18, r14
    34e6:	79 01       	movw	r14, r18
    34e8:	ff ef       	ldi	r31, 0xFF	; 255
    34ea:	ef 1a       	sub	r14, r31
    34ec:	ff 0a       	sbc	r15, r31
    34ee:	f9 01       	movw	r30, r18
    34f0:	20 81       	ld	r18, Z
    34f2:	22 2f       	mov	r18, r18
    34f4:	30 e0       	ldi	r19, 0x00	; 0
    34f6:	20 50       	subi	r18, 0x00	; 0
    34f8:	3e 4f       	sbci	r19, 0xFE	; 254
    34fa:	f9 01       	movw	r30, r18
    34fc:	20 81       	ld	r18, Z
    34fe:	d2 2e       	mov	r13, r18
    3500:	97 01       	movw	r18, r14
    3502:	79 01       	movw	r14, r18
    3504:	ff ef       	ldi	r31, 0xFF	; 255
    3506:	ef 1a       	sub	r14, r31
    3508:	ff 0a       	sbc	r15, r31
    350a:	f9 01       	movw	r30, r18
    350c:	20 81       	ld	r18, Z
    350e:	22 2f       	mov	r18, r18
    3510:	30 e0       	ldi	r19, 0x00	; 0
    3512:	20 50       	subi	r18, 0x00	; 0
    3514:	3e 4f       	sbci	r19, 0xFE	; 254
    3516:	f9 01       	movw	r30, r18
    3518:	20 81       	ld	r18, Z
    351a:	a2 2e       	mov	r10, r18
    351c:	97 01       	movw	r18, r14
    351e:	79 01       	movw	r14, r18
    3520:	ff ef       	ldi	r31, 0xFF	; 255
    3522:	ef 1a       	sub	r14, r31
    3524:	ff 0a       	sbc	r15, r31
    3526:	f9 01       	movw	r30, r18
    3528:	20 81       	ld	r18, Z
    352a:	22 2f       	mov	r18, r18
    352c:	30 e0       	ldi	r19, 0x00	; 0
    352e:	20 50       	subi	r18, 0x00	; 0
    3530:	3e 4f       	sbci	r19, 0xFE	; 254
    3532:	f9 01       	movw	r30, r18
    3534:	20 81       	ld	r18, Z
    3536:	b2 2e       	mov	r11, r18
    3538:	97 01       	movw	r18, r14
    353a:	79 01       	movw	r14, r18
    353c:	ff ef       	ldi	r31, 0xFF	; 255
    353e:	ef 1a       	sub	r14, r31
    3540:	ff 0a       	sbc	r15, r31
    3542:	f9 01       	movw	r30, r18
    3544:	20 81       	ld	r18, Z
    3546:	22 2f       	mov	r18, r18
    3548:	30 e0       	ldi	r19, 0x00	; 0
    354a:	20 50       	subi	r18, 0x00	; 0
    354c:	3e 4f       	sbci	r19, 0xFE	; 254
    354e:	f9 01       	movw	r30, r18
    3550:	20 81       	ld	r18, Z
    3552:	c2 2e       	mov	r12, r18
    3554:	4a 2d       	mov	r20, r10
    3556:	29 2d       	mov	r18, r9
    3558:	30 e0       	ldi	r19, 0x00	; 0
    355a:	20 50       	subi	r18, 0x00	; 0
    355c:	3d 4f       	sbci	r19, 0xFD	; 253
    355e:	f9 01       	movw	r30, r18
    3560:	20 81       	ld	r18, Z
    3562:	24 27       	eor	r18, r20
    3564:	a2 2e       	mov	r10, r18
    3566:	8c 01       	movw	r16, r24
    3568:	00 51       	subi	r16, 0x10	; 16
    356a:	11 09       	sbc	r17, r1
    356c:	9c 01       	movw	r18, r24
    356e:	c9 01       	movw	r24, r18
    3570:	01 96       	adiw	r24, 0x01	; 1
    3572:	6a 2d       	mov	r22, r10
    3574:	a8 01       	movw	r20, r16
    3576:	8a 01       	movw	r16, r20
    3578:	0f 5f       	subi	r16, 0xFF	; 255
    357a:	1f 4f       	sbci	r17, 0xFF	; 255
    357c:	fa 01       	movw	r30, r20
    357e:	40 81       	ld	r20, Z
    3580:	46 27       	eor	r20, r22
    3582:	f9 01       	movw	r30, r18
    3584:	40 83       	st	Z, r20
    3586:	9c 01       	movw	r18, r24
    3588:	c9 01       	movw	r24, r18
    358a:	01 96       	adiw	r24, 0x01	; 1
    358c:	6b 2d       	mov	r22, r11
    358e:	a8 01       	movw	r20, r16
    3590:	8a 01       	movw	r16, r20
    3592:	0f 5f       	subi	r16, 0xFF	; 255
    3594:	1f 4f       	sbci	r17, 0xFF	; 255
    3596:	fa 01       	movw	r30, r20
    3598:	40 81       	ld	r20, Z
    359a:	46 27       	eor	r20, r22
    359c:	f9 01       	movw	r30, r18
    359e:	40 83       	st	Z, r20
    35a0:	9c 01       	movw	r18, r24
    35a2:	c9 01       	movw	r24, r18
    35a4:	01 96       	adiw	r24, 0x01	; 1
    35a6:	6c 2d       	mov	r22, r12
    35a8:	a8 01       	movw	r20, r16
    35aa:	8a 01       	movw	r16, r20
    35ac:	0f 5f       	subi	r16, 0xFF	; 255
    35ae:	1f 4f       	sbci	r17, 0xFF	; 255
    35b0:	fa 01       	movw	r30, r20
    35b2:	40 81       	ld	r20, Z
    35b4:	46 27       	eor	r20, r22
    35b6:	f9 01       	movw	r30, r18
    35b8:	40 83       	st	Z, r20
    35ba:	9c 01       	movw	r18, r24
    35bc:	c9 01       	movw	r24, r18
    35be:	01 96       	adiw	r24, 0x01	; 1
    35c0:	6d 2d       	mov	r22, r13
    35c2:	a8 01       	movw	r20, r16
    35c4:	8a 01       	movw	r16, r20
    35c6:	0f 5f       	subi	r16, 0xFF	; 255
    35c8:	1f 4f       	sbci	r17, 0xFF	; 255
    35ca:	fa 01       	movw	r30, r20
    35cc:	40 81       	ld	r20, Z
    35ce:	46 27       	eor	r20, r22
    35d0:	f9 01       	movw	r30, r18
    35d2:	40 83       	st	Z, r20
    35d4:	9c 01       	movw	r18, r24
    35d6:	c9 01       	movw	r24, r18
    35d8:	01 96       	adiw	r24, 0x01	; 1
    35da:	a7 01       	movw	r20, r14
    35dc:	7a 01       	movw	r14, r20
    35de:	ff ef       	ldi	r31, 0xFF	; 255
    35e0:	ef 1a       	sub	r14, r31
    35e2:	ff 0a       	sbc	r15, r31
    35e4:	fa 01       	movw	r30, r20
    35e6:	60 81       	ld	r22, Z
    35e8:	a8 01       	movw	r20, r16
    35ea:	8a 01       	movw	r16, r20
    35ec:	0f 5f       	subi	r16, 0xFF	; 255
    35ee:	1f 4f       	sbci	r17, 0xFF	; 255
    35f0:	fa 01       	movw	r30, r20
    35f2:	40 81       	ld	r20, Z
    35f4:	46 27       	eor	r20, r22
    35f6:	f9 01       	movw	r30, r18
    35f8:	40 83       	st	Z, r20
    35fa:	9c 01       	movw	r18, r24
    35fc:	c9 01       	movw	r24, r18
    35fe:	01 96       	adiw	r24, 0x01	; 1
    3600:	a7 01       	movw	r20, r14
    3602:	7a 01       	movw	r14, r20
    3604:	ff ef       	ldi	r31, 0xFF	; 255
    3606:	ef 1a       	sub	r14, r31
    3608:	ff 0a       	sbc	r15, r31
    360a:	fa 01       	movw	r30, r20
    360c:	60 81       	ld	r22, Z
    360e:	a8 01       	movw	r20, r16
    3610:	8a 01       	movw	r16, r20
    3612:	0f 5f       	subi	r16, 0xFF	; 255
    3614:	1f 4f       	sbci	r17, 0xFF	; 255
    3616:	fa 01       	movw	r30, r20
    3618:	40 81       	ld	r20, Z
    361a:	46 27       	eor	r20, r22
    361c:	f9 01       	movw	r30, r18
    361e:	40 83       	st	Z, r20
    3620:	9c 01       	movw	r18, r24
    3622:	c9 01       	movw	r24, r18
    3624:	01 96       	adiw	r24, 0x01	; 1
    3626:	a7 01       	movw	r20, r14
    3628:	7a 01       	movw	r14, r20
    362a:	ff ef       	ldi	r31, 0xFF	; 255
    362c:	ef 1a       	sub	r14, r31
    362e:	ff 0a       	sbc	r15, r31
    3630:	fa 01       	movw	r30, r20
    3632:	60 81       	ld	r22, Z
    3634:	a8 01       	movw	r20, r16
    3636:	8a 01       	movw	r16, r20
    3638:	0f 5f       	subi	r16, 0xFF	; 255
    363a:	1f 4f       	sbci	r17, 0xFF	; 255
    363c:	fa 01       	movw	r30, r20
    363e:	40 81       	ld	r20, Z
    3640:	46 27       	eor	r20, r22
    3642:	f9 01       	movw	r30, r18
    3644:	40 83       	st	Z, r20
    3646:	9c 01       	movw	r18, r24
    3648:	c9 01       	movw	r24, r18
    364a:	01 96       	adiw	r24, 0x01	; 1
    364c:	a7 01       	movw	r20, r14
    364e:	7a 01       	movw	r14, r20
    3650:	ff ef       	ldi	r31, 0xFF	; 255
    3652:	ef 1a       	sub	r14, r31
    3654:	ff 0a       	sbc	r15, r31
    3656:	fa 01       	movw	r30, r20
    3658:	60 81       	ld	r22, Z
    365a:	a8 01       	movw	r20, r16
    365c:	8a 01       	movw	r16, r20
    365e:	0f 5f       	subi	r16, 0xFF	; 255
    3660:	1f 4f       	sbci	r17, 0xFF	; 255
    3662:	fa 01       	movw	r30, r20
    3664:	40 81       	ld	r20, Z
    3666:	46 27       	eor	r20, r22
    3668:	f9 01       	movw	r30, r18
    366a:	40 83       	st	Z, r20
    366c:	9c 01       	movw	r18, r24
    366e:	c9 01       	movw	r24, r18
    3670:	01 96       	adiw	r24, 0x01	; 1
    3672:	a7 01       	movw	r20, r14
    3674:	7a 01       	movw	r14, r20
    3676:	ff ef       	ldi	r31, 0xFF	; 255
    3678:	ef 1a       	sub	r14, r31
    367a:	ff 0a       	sbc	r15, r31
    367c:	fa 01       	movw	r30, r20
    367e:	60 81       	ld	r22, Z
    3680:	a8 01       	movw	r20, r16
    3682:	8a 01       	movw	r16, r20
    3684:	0f 5f       	subi	r16, 0xFF	; 255
    3686:	1f 4f       	sbci	r17, 0xFF	; 255
    3688:	fa 01       	movw	r30, r20
    368a:	40 81       	ld	r20, Z
    368c:	46 27       	eor	r20, r22
    368e:	f9 01       	movw	r30, r18
    3690:	40 83       	st	Z, r20
    3692:	9c 01       	movw	r18, r24
    3694:	c9 01       	movw	r24, r18
    3696:	01 96       	adiw	r24, 0x01	; 1
    3698:	a7 01       	movw	r20, r14
    369a:	7a 01       	movw	r14, r20
    369c:	ff ef       	ldi	r31, 0xFF	; 255
    369e:	ef 1a       	sub	r14, r31
    36a0:	ff 0a       	sbc	r15, r31
    36a2:	fa 01       	movw	r30, r20
    36a4:	60 81       	ld	r22, Z
    36a6:	a8 01       	movw	r20, r16
    36a8:	8a 01       	movw	r16, r20
    36aa:	0f 5f       	subi	r16, 0xFF	; 255
    36ac:	1f 4f       	sbci	r17, 0xFF	; 255
    36ae:	fa 01       	movw	r30, r20
    36b0:	40 81       	ld	r20, Z
    36b2:	46 27       	eor	r20, r22
    36b4:	f9 01       	movw	r30, r18
    36b6:	40 83       	st	Z, r20
    36b8:	9c 01       	movw	r18, r24
    36ba:	c9 01       	movw	r24, r18
    36bc:	01 96       	adiw	r24, 0x01	; 1
    36be:	a7 01       	movw	r20, r14
    36c0:	7a 01       	movw	r14, r20
    36c2:	ff ef       	ldi	r31, 0xFF	; 255
    36c4:	ef 1a       	sub	r14, r31
    36c6:	ff 0a       	sbc	r15, r31
    36c8:	fa 01       	movw	r30, r20
    36ca:	60 81       	ld	r22, Z
    36cc:	a8 01       	movw	r20, r16
    36ce:	8a 01       	movw	r16, r20
    36d0:	0f 5f       	subi	r16, 0xFF	; 255
    36d2:	1f 4f       	sbci	r17, 0xFF	; 255
    36d4:	fa 01       	movw	r30, r20
    36d6:	40 81       	ld	r20, Z
    36d8:	46 27       	eor	r20, r22
    36da:	f9 01       	movw	r30, r18
    36dc:	40 83       	st	Z, r20
    36de:	9c 01       	movw	r18, r24
    36e0:	c9 01       	movw	r24, r18
    36e2:	01 96       	adiw	r24, 0x01	; 1
    36e4:	a7 01       	movw	r20, r14
    36e6:	7a 01       	movw	r14, r20
    36e8:	ff ef       	ldi	r31, 0xFF	; 255
    36ea:	ef 1a       	sub	r14, r31
    36ec:	ff 0a       	sbc	r15, r31
    36ee:	fa 01       	movw	r30, r20
    36f0:	60 81       	ld	r22, Z
    36f2:	a8 01       	movw	r20, r16
    36f4:	8a 01       	movw	r16, r20
    36f6:	0f 5f       	subi	r16, 0xFF	; 255
    36f8:	1f 4f       	sbci	r17, 0xFF	; 255
    36fa:	fa 01       	movw	r30, r20
    36fc:	40 81       	ld	r20, Z
    36fe:	46 27       	eor	r20, r22
    3700:	f9 01       	movw	r30, r18
    3702:	40 83       	st	Z, r20
    3704:	9c 01       	movw	r18, r24
    3706:	c9 01       	movw	r24, r18
    3708:	01 96       	adiw	r24, 0x01	; 1
    370a:	a7 01       	movw	r20, r14
    370c:	7a 01       	movw	r14, r20
    370e:	ff ef       	ldi	r31, 0xFF	; 255
    3710:	ef 1a       	sub	r14, r31
    3712:	ff 0a       	sbc	r15, r31
    3714:	fa 01       	movw	r30, r20
    3716:	60 81       	ld	r22, Z
    3718:	a8 01       	movw	r20, r16
    371a:	8a 01       	movw	r16, r20
    371c:	0f 5f       	subi	r16, 0xFF	; 255
    371e:	1f 4f       	sbci	r17, 0xFF	; 255
    3720:	fa 01       	movw	r30, r20
    3722:	40 81       	ld	r20, Z
    3724:	46 27       	eor	r20, r22
    3726:	f9 01       	movw	r30, r18
    3728:	40 83       	st	Z, r20
    372a:	9c 01       	movw	r18, r24
    372c:	c9 01       	movw	r24, r18
    372e:	01 96       	adiw	r24, 0x01	; 1
    3730:	a7 01       	movw	r20, r14
    3732:	7a 01       	movw	r14, r20
    3734:	ff ef       	ldi	r31, 0xFF	; 255
    3736:	ef 1a       	sub	r14, r31
    3738:	ff 0a       	sbc	r15, r31
    373a:	fa 01       	movw	r30, r20
    373c:	60 81       	ld	r22, Z
    373e:	a8 01       	movw	r20, r16
    3740:	8a 01       	movw	r16, r20
    3742:	0f 5f       	subi	r16, 0xFF	; 255
    3744:	1f 4f       	sbci	r17, 0xFF	; 255
    3746:	fa 01       	movw	r30, r20
    3748:	40 81       	ld	r20, Z
    374a:	46 27       	eor	r20, r22
    374c:	f9 01       	movw	r30, r18
    374e:	40 83       	st	Z, r20
    3750:	9c 01       	movw	r18, r24
    3752:	c9 01       	movw	r24, r18
    3754:	01 96       	adiw	r24, 0x01	; 1
    3756:	a7 01       	movw	r20, r14
    3758:	7a 01       	movw	r14, r20
    375a:	ff ef       	ldi	r31, 0xFF	; 255
    375c:	ef 1a       	sub	r14, r31
    375e:	ff 0a       	sbc	r15, r31
    3760:	fa 01       	movw	r30, r20
    3762:	60 81       	ld	r22, Z
    3764:	a8 01       	movw	r20, r16
    3766:	8a 01       	movw	r16, r20
    3768:	0f 5f       	subi	r16, 0xFF	; 255
    376a:	1f 4f       	sbci	r17, 0xFF	; 255
    376c:	fa 01       	movw	r30, r20
    376e:	40 81       	ld	r20, Z
    3770:	46 27       	eor	r20, r22
    3772:	f9 01       	movw	r30, r18
    3774:	40 83       	st	Z, r20
    3776:	9c 01       	movw	r18, r24
    3778:	c9 01       	movw	r24, r18
    377a:	01 96       	adiw	r24, 0x01	; 1
    377c:	a7 01       	movw	r20, r14
    377e:	7a 01       	movw	r14, r20
    3780:	ff ef       	ldi	r31, 0xFF	; 255
    3782:	ef 1a       	sub	r14, r31
    3784:	ff 0a       	sbc	r15, r31
    3786:	fa 01       	movw	r30, r20
    3788:	60 81       	ld	r22, Z
    378a:	a8 01       	movw	r20, r16
    378c:	8a 01       	movw	r16, r20
    378e:	0f 5f       	subi	r16, 0xFF	; 255
    3790:	1f 4f       	sbci	r17, 0xFF	; 255
    3792:	fa 01       	movw	r30, r20
    3794:	40 81       	ld	r20, Z
    3796:	46 27       	eor	r20, r22
    3798:	f9 01       	movw	r30, r18
    379a:	40 83       	st	Z, r20
    379c:	97 01       	movw	r18, r14
    379e:	79 01       	movw	r14, r18
    37a0:	ff ef       	ldi	r31, 0xFF	; 255
    37a2:	ef 1a       	sub	r14, r31
    37a4:	ff 0a       	sbc	r15, r31
    37a6:	f9 01       	movw	r30, r18
    37a8:	20 81       	ld	r18, Z
    37aa:	22 2f       	mov	r18, r18
    37ac:	30 e0       	ldi	r19, 0x00	; 0
    37ae:	20 50       	subi	r18, 0x00	; 0
    37b0:	3e 4f       	sbci	r19, 0xFE	; 254
    37b2:	f9 01       	movw	r30, r18
    37b4:	20 81       	ld	r18, Z
    37b6:	d2 2e       	mov	r13, r18
    37b8:	97 01       	movw	r18, r14
    37ba:	79 01       	movw	r14, r18
    37bc:	ff ef       	ldi	r31, 0xFF	; 255
    37be:	ef 1a       	sub	r14, r31
    37c0:	ff 0a       	sbc	r15, r31
    37c2:	f9 01       	movw	r30, r18
    37c4:	20 81       	ld	r18, Z
    37c6:	22 2f       	mov	r18, r18
    37c8:	30 e0       	ldi	r19, 0x00	; 0
    37ca:	20 50       	subi	r18, 0x00	; 0
    37cc:	3e 4f       	sbci	r19, 0xFE	; 254
    37ce:	f9 01       	movw	r30, r18
    37d0:	20 81       	ld	r18, Z
    37d2:	a2 2e       	mov	r10, r18
    37d4:	97 01       	movw	r18, r14
    37d6:	79 01       	movw	r14, r18
    37d8:	ff ef       	ldi	r31, 0xFF	; 255
    37da:	ef 1a       	sub	r14, r31
    37dc:	ff 0a       	sbc	r15, r31
    37de:	f9 01       	movw	r30, r18
    37e0:	20 81       	ld	r18, Z
    37e2:	22 2f       	mov	r18, r18
    37e4:	30 e0       	ldi	r19, 0x00	; 0
    37e6:	20 50       	subi	r18, 0x00	; 0
    37e8:	3e 4f       	sbci	r19, 0xFE	; 254
    37ea:	f9 01       	movw	r30, r18
    37ec:	20 81       	ld	r18, Z
    37ee:	b2 2e       	mov	r11, r18
    37f0:	97 01       	movw	r18, r14
    37f2:	79 01       	movw	r14, r18
    37f4:	ff ef       	ldi	r31, 0xFF	; 255
    37f6:	ef 1a       	sub	r14, r31
    37f8:	ff 0a       	sbc	r15, r31
    37fa:	f9 01       	movw	r30, r18
    37fc:	20 81       	ld	r18, Z
    37fe:	22 2f       	mov	r18, r18
    3800:	30 e0       	ldi	r19, 0x00	; 0
    3802:	20 50       	subi	r18, 0x00	; 0
    3804:	3e 4f       	sbci	r19, 0xFE	; 254
    3806:	f9 01       	movw	r30, r18
    3808:	20 81       	ld	r18, Z
    380a:	c2 2e       	mov	r12, r18
    380c:	4a 2d       	mov	r20, r10
    380e:	29 2d       	mov	r18, r9
    3810:	30 e0       	ldi	r19, 0x00	; 0
    3812:	20 50       	subi	r18, 0x00	; 0
    3814:	3d 4f       	sbci	r19, 0xFD	; 253
    3816:	f9 01       	movw	r30, r18
    3818:	20 81       	ld	r18, Z
    381a:	24 27       	eor	r18, r20
    381c:	a2 2e       	mov	r10, r18
    381e:	8c 01       	movw	r16, r24
    3820:	00 51       	subi	r16, 0x10	; 16
    3822:	11 09       	sbc	r17, r1
    3824:	9c 01       	movw	r18, r24
    3826:	c9 01       	movw	r24, r18
    3828:	01 96       	adiw	r24, 0x01	; 1
    382a:	6a 2d       	mov	r22, r10
    382c:	a8 01       	movw	r20, r16
    382e:	8a 01       	movw	r16, r20
    3830:	0f 5f       	subi	r16, 0xFF	; 255
    3832:	1f 4f       	sbci	r17, 0xFF	; 255
    3834:	fa 01       	movw	r30, r20
    3836:	40 81       	ld	r20, Z
    3838:	46 27       	eor	r20, r22
    383a:	f9 01       	movw	r30, r18
    383c:	40 83       	st	Z, r20
    383e:	9c 01       	movw	r18, r24
    3840:	c9 01       	movw	r24, r18
    3842:	01 96       	adiw	r24, 0x01	; 1
    3844:	6b 2d       	mov	r22, r11
    3846:	a8 01       	movw	r20, r16
    3848:	8a 01       	movw	r16, r20
    384a:	0f 5f       	subi	r16, 0xFF	; 255
    384c:	1f 4f       	sbci	r17, 0xFF	; 255
    384e:	fa 01       	movw	r30, r20
    3850:	40 81       	ld	r20, Z
    3852:	46 27       	eor	r20, r22
    3854:	f9 01       	movw	r30, r18
    3856:	40 83       	st	Z, r20
    3858:	9c 01       	movw	r18, r24
    385a:	c9 01       	movw	r24, r18
    385c:	01 96       	adiw	r24, 0x01	; 1
    385e:	6c 2d       	mov	r22, r12
    3860:	a8 01       	movw	r20, r16
    3862:	8a 01       	movw	r16, r20
    3864:	0f 5f       	subi	r16, 0xFF	; 255
    3866:	1f 4f       	sbci	r17, 0xFF	; 255
    3868:	fa 01       	movw	r30, r20
    386a:	40 81       	ld	r20, Z
    386c:	46 27       	eor	r20, r22
    386e:	f9 01       	movw	r30, r18
    3870:	40 83       	st	Z, r20
    3872:	9c 01       	movw	r18, r24
    3874:	c9 01       	movw	r24, r18
    3876:	01 96       	adiw	r24, 0x01	; 1
    3878:	6d 2d       	mov	r22, r13
    387a:	a8 01       	movw	r20, r16
    387c:	8a 01       	movw	r16, r20
    387e:	0f 5f       	subi	r16, 0xFF	; 255
    3880:	1f 4f       	sbci	r17, 0xFF	; 255
    3882:	fa 01       	movw	r30, r20
    3884:	40 81       	ld	r20, Z
    3886:	46 27       	eor	r20, r22
    3888:	f9 01       	movw	r30, r18
    388a:	40 83       	st	Z, r20
    388c:	9c 01       	movw	r18, r24
    388e:	c9 01       	movw	r24, r18
    3890:	01 96       	adiw	r24, 0x01	; 1
    3892:	a7 01       	movw	r20, r14
    3894:	7a 01       	movw	r14, r20
    3896:	ff ef       	ldi	r31, 0xFF	; 255
    3898:	ef 1a       	sub	r14, r31
    389a:	ff 0a       	sbc	r15, r31
    389c:	fa 01       	movw	r30, r20
    389e:	60 81       	ld	r22, Z
    38a0:	a8 01       	movw	r20, r16
    38a2:	8a 01       	movw	r16, r20
    38a4:	0f 5f       	subi	r16, 0xFF	; 255
    38a6:	1f 4f       	sbci	r17, 0xFF	; 255
    38a8:	fa 01       	movw	r30, r20
    38aa:	40 81       	ld	r20, Z
    38ac:	46 27       	eor	r20, r22
    38ae:	f9 01       	movw	r30, r18
    38b0:	40 83       	st	Z, r20
    38b2:	9c 01       	movw	r18, r24
    38b4:	c9 01       	movw	r24, r18
    38b6:	01 96       	adiw	r24, 0x01	; 1
    38b8:	a7 01       	movw	r20, r14
    38ba:	7a 01       	movw	r14, r20
    38bc:	ff ef       	ldi	r31, 0xFF	; 255
    38be:	ef 1a       	sub	r14, r31
    38c0:	ff 0a       	sbc	r15, r31
    38c2:	fa 01       	movw	r30, r20
    38c4:	60 81       	ld	r22, Z
    38c6:	a8 01       	movw	r20, r16
    38c8:	8a 01       	movw	r16, r20
    38ca:	0f 5f       	subi	r16, 0xFF	; 255
    38cc:	1f 4f       	sbci	r17, 0xFF	; 255
    38ce:	fa 01       	movw	r30, r20
    38d0:	40 81       	ld	r20, Z
    38d2:	46 27       	eor	r20, r22
    38d4:	f9 01       	movw	r30, r18
    38d6:	40 83       	st	Z, r20
    38d8:	9c 01       	movw	r18, r24
    38da:	c9 01       	movw	r24, r18
    38dc:	01 96       	adiw	r24, 0x01	; 1
    38de:	a7 01       	movw	r20, r14
    38e0:	7a 01       	movw	r14, r20
    38e2:	ff ef       	ldi	r31, 0xFF	; 255
    38e4:	ef 1a       	sub	r14, r31
    38e6:	ff 0a       	sbc	r15, r31
    38e8:	fa 01       	movw	r30, r20
    38ea:	60 81       	ld	r22, Z
    38ec:	a8 01       	movw	r20, r16
    38ee:	8a 01       	movw	r16, r20
    38f0:	0f 5f       	subi	r16, 0xFF	; 255
    38f2:	1f 4f       	sbci	r17, 0xFF	; 255
    38f4:	fa 01       	movw	r30, r20
    38f6:	40 81       	ld	r20, Z
    38f8:	46 27       	eor	r20, r22
    38fa:	f9 01       	movw	r30, r18
    38fc:	40 83       	st	Z, r20
    38fe:	9c 01       	movw	r18, r24
    3900:	c9 01       	movw	r24, r18
    3902:	01 96       	adiw	r24, 0x01	; 1
    3904:	a7 01       	movw	r20, r14
    3906:	7a 01       	movw	r14, r20
    3908:	ff ef       	ldi	r31, 0xFF	; 255
    390a:	ef 1a       	sub	r14, r31
    390c:	ff 0a       	sbc	r15, r31
    390e:	fa 01       	movw	r30, r20
    3910:	60 81       	ld	r22, Z
    3912:	a8 01       	movw	r20, r16
    3914:	8a 01       	movw	r16, r20
    3916:	0f 5f       	subi	r16, 0xFF	; 255
    3918:	1f 4f       	sbci	r17, 0xFF	; 255
    391a:	fa 01       	movw	r30, r20
    391c:	40 81       	ld	r20, Z
    391e:	46 27       	eor	r20, r22
    3920:	f9 01       	movw	r30, r18
    3922:	40 83       	st	Z, r20
    3924:	9c 01       	movw	r18, r24
    3926:	c9 01       	movw	r24, r18
    3928:	01 96       	adiw	r24, 0x01	; 1
    392a:	a7 01       	movw	r20, r14
    392c:	7a 01       	movw	r14, r20
    392e:	ff ef       	ldi	r31, 0xFF	; 255
    3930:	ef 1a       	sub	r14, r31
    3932:	ff 0a       	sbc	r15, r31
    3934:	fa 01       	movw	r30, r20
    3936:	60 81       	ld	r22, Z
    3938:	a8 01       	movw	r20, r16
    393a:	8a 01       	movw	r16, r20
    393c:	0f 5f       	subi	r16, 0xFF	; 255
    393e:	1f 4f       	sbci	r17, 0xFF	; 255
    3940:	fa 01       	movw	r30, r20
    3942:	40 81       	ld	r20, Z
    3944:	46 27       	eor	r20, r22
    3946:	f9 01       	movw	r30, r18
    3948:	40 83       	st	Z, r20
    394a:	9c 01       	movw	r18, r24
    394c:	c9 01       	movw	r24, r18
    394e:	01 96       	adiw	r24, 0x01	; 1
    3950:	a7 01       	movw	r20, r14
    3952:	7a 01       	movw	r14, r20
    3954:	ff ef       	ldi	r31, 0xFF	; 255
    3956:	ef 1a       	sub	r14, r31
    3958:	ff 0a       	sbc	r15, r31
    395a:	fa 01       	movw	r30, r20
    395c:	60 81       	ld	r22, Z
    395e:	a8 01       	movw	r20, r16
    3960:	8a 01       	movw	r16, r20
    3962:	0f 5f       	subi	r16, 0xFF	; 255
    3964:	1f 4f       	sbci	r17, 0xFF	; 255
    3966:	fa 01       	movw	r30, r20
    3968:	40 81       	ld	r20, Z
    396a:	46 27       	eor	r20, r22
    396c:	f9 01       	movw	r30, r18
    396e:	40 83       	st	Z, r20
    3970:	9c 01       	movw	r18, r24
    3972:	c9 01       	movw	r24, r18
    3974:	01 96       	adiw	r24, 0x01	; 1
    3976:	a7 01       	movw	r20, r14
    3978:	7a 01       	movw	r14, r20
    397a:	ff ef       	ldi	r31, 0xFF	; 255
    397c:	ef 1a       	sub	r14, r31
    397e:	ff 0a       	sbc	r15, r31
    3980:	fa 01       	movw	r30, r20
    3982:	60 81       	ld	r22, Z
    3984:	a8 01       	movw	r20, r16
    3986:	8a 01       	movw	r16, r20
    3988:	0f 5f       	subi	r16, 0xFF	; 255
    398a:	1f 4f       	sbci	r17, 0xFF	; 255
    398c:	fa 01       	movw	r30, r20
    398e:	40 81       	ld	r20, Z
    3990:	46 27       	eor	r20, r22
    3992:	f9 01       	movw	r30, r18
    3994:	40 83       	st	Z, r20
    3996:	9c 01       	movw	r18, r24
    3998:	c9 01       	movw	r24, r18
    399a:	01 96       	adiw	r24, 0x01	; 1
    399c:	a7 01       	movw	r20, r14
    399e:	7a 01       	movw	r14, r20
    39a0:	ff ef       	ldi	r31, 0xFF	; 255
    39a2:	ef 1a       	sub	r14, r31
    39a4:	ff 0a       	sbc	r15, r31
    39a6:	fa 01       	movw	r30, r20
    39a8:	60 81       	ld	r22, Z
    39aa:	a8 01       	movw	r20, r16
    39ac:	8a 01       	movw	r16, r20
    39ae:	0f 5f       	subi	r16, 0xFF	; 255
    39b0:	1f 4f       	sbci	r17, 0xFF	; 255
    39b2:	fa 01       	movw	r30, r20
    39b4:	40 81       	ld	r20, Z
    39b6:	46 27       	eor	r20, r22
    39b8:	f9 01       	movw	r30, r18
    39ba:	40 83       	st	Z, r20
    39bc:	9c 01       	movw	r18, r24
    39be:	c9 01       	movw	r24, r18
    39c0:	01 96       	adiw	r24, 0x01	; 1
    39c2:	a7 01       	movw	r20, r14
    39c4:	7a 01       	movw	r14, r20
    39c6:	ff ef       	ldi	r31, 0xFF	; 255
    39c8:	ef 1a       	sub	r14, r31
    39ca:	ff 0a       	sbc	r15, r31
    39cc:	fa 01       	movw	r30, r20
    39ce:	60 81       	ld	r22, Z
    39d0:	a8 01       	movw	r20, r16
    39d2:	8a 01       	movw	r16, r20
    39d4:	0f 5f       	subi	r16, 0xFF	; 255
    39d6:	1f 4f       	sbci	r17, 0xFF	; 255
    39d8:	fa 01       	movw	r30, r20
    39da:	40 81       	ld	r20, Z
    39dc:	46 27       	eor	r20, r22
    39de:	f9 01       	movw	r30, r18
    39e0:	40 83       	st	Z, r20
    39e2:	9c 01       	movw	r18, r24
    39e4:	c9 01       	movw	r24, r18
    39e6:	01 96       	adiw	r24, 0x01	; 1
    39e8:	a7 01       	movw	r20, r14
    39ea:	7a 01       	movw	r14, r20
    39ec:	ff ef       	ldi	r31, 0xFF	; 255
    39ee:	ef 1a       	sub	r14, r31
    39f0:	ff 0a       	sbc	r15, r31
    39f2:	fa 01       	movw	r30, r20
    39f4:	60 81       	ld	r22, Z
    39f6:	a8 01       	movw	r20, r16
    39f8:	8a 01       	movw	r16, r20
    39fa:	0f 5f       	subi	r16, 0xFF	; 255
    39fc:	1f 4f       	sbci	r17, 0xFF	; 255
    39fe:	fa 01       	movw	r30, r20
    3a00:	40 81       	ld	r20, Z
    3a02:	46 27       	eor	r20, r22
    3a04:	f9 01       	movw	r30, r18
    3a06:	40 83       	st	Z, r20
    3a08:	9c 01       	movw	r18, r24
    3a0a:	c9 01       	movw	r24, r18
    3a0c:	01 96       	adiw	r24, 0x01	; 1
    3a0e:	a7 01       	movw	r20, r14
    3a10:	7a 01       	movw	r14, r20
    3a12:	ff ef       	ldi	r31, 0xFF	; 255
    3a14:	ef 1a       	sub	r14, r31
    3a16:	ff 0a       	sbc	r15, r31
    3a18:	fa 01       	movw	r30, r20
    3a1a:	60 81       	ld	r22, Z
    3a1c:	a8 01       	movw	r20, r16
    3a1e:	8a 01       	movw	r16, r20
    3a20:	0f 5f       	subi	r16, 0xFF	; 255
    3a22:	1f 4f       	sbci	r17, 0xFF	; 255
    3a24:	fa 01       	movw	r30, r20
    3a26:	40 81       	ld	r20, Z
    3a28:	46 27       	eor	r20, r22
    3a2a:	f9 01       	movw	r30, r18
    3a2c:	40 83       	st	Z, r20
    3a2e:	9c 01       	movw	r18, r24
    3a30:	c9 01       	movw	r24, r18
    3a32:	01 96       	adiw	r24, 0x01	; 1
    3a34:	a7 01       	movw	r20, r14
    3a36:	7a 01       	movw	r14, r20
    3a38:	ff ef       	ldi	r31, 0xFF	; 255
    3a3a:	ef 1a       	sub	r14, r31
    3a3c:	ff 0a       	sbc	r15, r31
    3a3e:	fa 01       	movw	r30, r20
    3a40:	60 81       	ld	r22, Z
    3a42:	a8 01       	movw	r20, r16
    3a44:	8a 01       	movw	r16, r20
    3a46:	0f 5f       	subi	r16, 0xFF	; 255
    3a48:	1f 4f       	sbci	r17, 0xFF	; 255
    3a4a:	fa 01       	movw	r30, r20
    3a4c:	40 81       	ld	r20, Z
    3a4e:	46 27       	eor	r20, r22
    3a50:	f9 01       	movw	r30, r18
    3a52:	40 83       	st	Z, r20
    3a54:	97 01       	movw	r18, r14
    3a56:	79 01       	movw	r14, r18
    3a58:	ff ef       	ldi	r31, 0xFF	; 255
    3a5a:	ef 1a       	sub	r14, r31
    3a5c:	ff 0a       	sbc	r15, r31
    3a5e:	f9 01       	movw	r30, r18
    3a60:	20 81       	ld	r18, Z
    3a62:	22 2f       	mov	r18, r18
    3a64:	30 e0       	ldi	r19, 0x00	; 0
    3a66:	20 50       	subi	r18, 0x00	; 0
    3a68:	3e 4f       	sbci	r19, 0xFE	; 254
    3a6a:	f9 01       	movw	r30, r18
    3a6c:	20 81       	ld	r18, Z
    3a6e:	d2 2e       	mov	r13, r18
    3a70:	97 01       	movw	r18, r14
    3a72:	79 01       	movw	r14, r18
    3a74:	ff ef       	ldi	r31, 0xFF	; 255
    3a76:	ef 1a       	sub	r14, r31
    3a78:	ff 0a       	sbc	r15, r31
    3a7a:	f9 01       	movw	r30, r18
    3a7c:	20 81       	ld	r18, Z
    3a7e:	22 2f       	mov	r18, r18
    3a80:	30 e0       	ldi	r19, 0x00	; 0
    3a82:	20 50       	subi	r18, 0x00	; 0
    3a84:	3e 4f       	sbci	r19, 0xFE	; 254
    3a86:	f9 01       	movw	r30, r18
    3a88:	20 81       	ld	r18, Z
    3a8a:	a2 2e       	mov	r10, r18
    3a8c:	97 01       	movw	r18, r14
    3a8e:	79 01       	movw	r14, r18
    3a90:	ff ef       	ldi	r31, 0xFF	; 255
    3a92:	ef 1a       	sub	r14, r31
    3a94:	ff 0a       	sbc	r15, r31
    3a96:	f9 01       	movw	r30, r18
    3a98:	20 81       	ld	r18, Z
    3a9a:	22 2f       	mov	r18, r18
    3a9c:	30 e0       	ldi	r19, 0x00	; 0
    3a9e:	20 50       	subi	r18, 0x00	; 0
    3aa0:	3e 4f       	sbci	r19, 0xFE	; 254
    3aa2:	f9 01       	movw	r30, r18
    3aa4:	20 81       	ld	r18, Z
    3aa6:	b2 2e       	mov	r11, r18
    3aa8:	97 01       	movw	r18, r14
    3aaa:	79 01       	movw	r14, r18
    3aac:	ff ef       	ldi	r31, 0xFF	; 255
    3aae:	ef 1a       	sub	r14, r31
    3ab0:	ff 0a       	sbc	r15, r31
    3ab2:	f9 01       	movw	r30, r18
    3ab4:	20 81       	ld	r18, Z
    3ab6:	22 2f       	mov	r18, r18
    3ab8:	30 e0       	ldi	r19, 0x00	; 0
    3aba:	20 50       	subi	r18, 0x00	; 0
    3abc:	3e 4f       	sbci	r19, 0xFE	; 254
    3abe:	f9 01       	movw	r30, r18
    3ac0:	20 81       	ld	r18, Z
    3ac2:	c2 2e       	mov	r12, r18
    3ac4:	4a 2d       	mov	r20, r10
    3ac6:	29 2d       	mov	r18, r9
    3ac8:	30 e0       	ldi	r19, 0x00	; 0
    3aca:	20 50       	subi	r18, 0x00	; 0
    3acc:	3d 4f       	sbci	r19, 0xFD	; 253
    3ace:	f9 01       	movw	r30, r18
    3ad0:	20 81       	ld	r18, Z
    3ad2:	24 27       	eor	r18, r20
    3ad4:	a2 2e       	mov	r10, r18
    3ad6:	8c 01       	movw	r16, r24
    3ad8:	00 51       	subi	r16, 0x10	; 16
    3ada:	11 09       	sbc	r17, r1
    3adc:	9c 01       	movw	r18, r24
    3ade:	c9 01       	movw	r24, r18
    3ae0:	01 96       	adiw	r24, 0x01	; 1
    3ae2:	6a 2d       	mov	r22, r10
    3ae4:	a8 01       	movw	r20, r16
    3ae6:	8a 01       	movw	r16, r20
    3ae8:	0f 5f       	subi	r16, 0xFF	; 255
    3aea:	1f 4f       	sbci	r17, 0xFF	; 255
    3aec:	fa 01       	movw	r30, r20
    3aee:	40 81       	ld	r20, Z
    3af0:	46 27       	eor	r20, r22
    3af2:	f9 01       	movw	r30, r18
    3af4:	40 83       	st	Z, r20
    3af6:	9c 01       	movw	r18, r24
    3af8:	c9 01       	movw	r24, r18
    3afa:	01 96       	adiw	r24, 0x01	; 1
    3afc:	6b 2d       	mov	r22, r11
    3afe:	a8 01       	movw	r20, r16
    3b00:	8a 01       	movw	r16, r20
    3b02:	0f 5f       	subi	r16, 0xFF	; 255
    3b04:	1f 4f       	sbci	r17, 0xFF	; 255
    3b06:	fa 01       	movw	r30, r20
    3b08:	40 81       	ld	r20, Z
    3b0a:	46 27       	eor	r20, r22
    3b0c:	f9 01       	movw	r30, r18
    3b0e:	40 83       	st	Z, r20
    3b10:	9c 01       	movw	r18, r24
    3b12:	c9 01       	movw	r24, r18
    3b14:	01 96       	adiw	r24, 0x01	; 1
    3b16:	6c 2d       	mov	r22, r12
    3b18:	a8 01       	movw	r20, r16
    3b1a:	8a 01       	movw	r16, r20
    3b1c:	0f 5f       	subi	r16, 0xFF	; 255
    3b1e:	1f 4f       	sbci	r17, 0xFF	; 255
    3b20:	fa 01       	movw	r30, r20
    3b22:	40 81       	ld	r20, Z
    3b24:	46 27       	eor	r20, r22
    3b26:	f9 01       	movw	r30, r18
    3b28:	40 83       	st	Z, r20
    3b2a:	9c 01       	movw	r18, r24
    3b2c:	c9 01       	movw	r24, r18
    3b2e:	01 96       	adiw	r24, 0x01	; 1
    3b30:	6d 2d       	mov	r22, r13
    3b32:	a8 01       	movw	r20, r16
    3b34:	8a 01       	movw	r16, r20
    3b36:	0f 5f       	subi	r16, 0xFF	; 255
    3b38:	1f 4f       	sbci	r17, 0xFF	; 255
    3b3a:	fa 01       	movw	r30, r20
    3b3c:	40 81       	ld	r20, Z
    3b3e:	46 27       	eor	r20, r22
    3b40:	f9 01       	movw	r30, r18
    3b42:	40 83       	st	Z, r20
    3b44:	9c 01       	movw	r18, r24
    3b46:	c9 01       	movw	r24, r18
    3b48:	01 96       	adiw	r24, 0x01	; 1
    3b4a:	a7 01       	movw	r20, r14
    3b4c:	7a 01       	movw	r14, r20
    3b4e:	ff ef       	ldi	r31, 0xFF	; 255
    3b50:	ef 1a       	sub	r14, r31
    3b52:	ff 0a       	sbc	r15, r31
    3b54:	fa 01       	movw	r30, r20
    3b56:	60 81       	ld	r22, Z
    3b58:	a8 01       	movw	r20, r16
    3b5a:	8a 01       	movw	r16, r20
    3b5c:	0f 5f       	subi	r16, 0xFF	; 255
    3b5e:	1f 4f       	sbci	r17, 0xFF	; 255
    3b60:	fa 01       	movw	r30, r20
    3b62:	40 81       	ld	r20, Z
    3b64:	46 27       	eor	r20, r22
    3b66:	f9 01       	movw	r30, r18
    3b68:	40 83       	st	Z, r20
    3b6a:	9c 01       	movw	r18, r24
    3b6c:	c9 01       	movw	r24, r18
    3b6e:	01 96       	adiw	r24, 0x01	; 1
    3b70:	a7 01       	movw	r20, r14
    3b72:	7a 01       	movw	r14, r20
    3b74:	ff ef       	ldi	r31, 0xFF	; 255
    3b76:	ef 1a       	sub	r14, r31
    3b78:	ff 0a       	sbc	r15, r31
    3b7a:	fa 01       	movw	r30, r20
    3b7c:	60 81       	ld	r22, Z
    3b7e:	a8 01       	movw	r20, r16
    3b80:	8a 01       	movw	r16, r20
    3b82:	0f 5f       	subi	r16, 0xFF	; 255
    3b84:	1f 4f       	sbci	r17, 0xFF	; 255
    3b86:	fa 01       	movw	r30, r20
    3b88:	40 81       	ld	r20, Z
    3b8a:	46 27       	eor	r20, r22
    3b8c:	f9 01       	movw	r30, r18
    3b8e:	40 83       	st	Z, r20
    3b90:	9c 01       	movw	r18, r24
    3b92:	c9 01       	movw	r24, r18
    3b94:	01 96       	adiw	r24, 0x01	; 1
    3b96:	a7 01       	movw	r20, r14
    3b98:	7a 01       	movw	r14, r20
    3b9a:	ff ef       	ldi	r31, 0xFF	; 255
    3b9c:	ef 1a       	sub	r14, r31
    3b9e:	ff 0a       	sbc	r15, r31
    3ba0:	fa 01       	movw	r30, r20
    3ba2:	60 81       	ld	r22, Z
    3ba4:	a8 01       	movw	r20, r16
    3ba6:	8a 01       	movw	r16, r20
    3ba8:	0f 5f       	subi	r16, 0xFF	; 255
    3baa:	1f 4f       	sbci	r17, 0xFF	; 255
    3bac:	fa 01       	movw	r30, r20
    3bae:	40 81       	ld	r20, Z
    3bb0:	46 27       	eor	r20, r22
    3bb2:	f9 01       	movw	r30, r18
    3bb4:	40 83       	st	Z, r20
    3bb6:	9c 01       	movw	r18, r24
    3bb8:	c9 01       	movw	r24, r18
    3bba:	01 96       	adiw	r24, 0x01	; 1
    3bbc:	a7 01       	movw	r20, r14
    3bbe:	7a 01       	movw	r14, r20
    3bc0:	ff ef       	ldi	r31, 0xFF	; 255
    3bc2:	ef 1a       	sub	r14, r31
    3bc4:	ff 0a       	sbc	r15, r31
    3bc6:	fa 01       	movw	r30, r20
    3bc8:	60 81       	ld	r22, Z
    3bca:	a8 01       	movw	r20, r16
    3bcc:	8a 01       	movw	r16, r20
    3bce:	0f 5f       	subi	r16, 0xFF	; 255
    3bd0:	1f 4f       	sbci	r17, 0xFF	; 255
    3bd2:	fa 01       	movw	r30, r20
    3bd4:	40 81       	ld	r20, Z
    3bd6:	46 27       	eor	r20, r22
    3bd8:	f9 01       	movw	r30, r18
    3bda:	40 83       	st	Z, r20
    3bdc:	9c 01       	movw	r18, r24
    3bde:	c9 01       	movw	r24, r18
    3be0:	01 96       	adiw	r24, 0x01	; 1
    3be2:	a7 01       	movw	r20, r14
    3be4:	7a 01       	movw	r14, r20
    3be6:	ff ef       	ldi	r31, 0xFF	; 255
    3be8:	ef 1a       	sub	r14, r31
    3bea:	ff 0a       	sbc	r15, r31
    3bec:	fa 01       	movw	r30, r20
    3bee:	60 81       	ld	r22, Z
    3bf0:	a8 01       	movw	r20, r16
    3bf2:	8a 01       	movw	r16, r20
    3bf4:	0f 5f       	subi	r16, 0xFF	; 255
    3bf6:	1f 4f       	sbci	r17, 0xFF	; 255
    3bf8:	fa 01       	movw	r30, r20
    3bfa:	40 81       	ld	r20, Z
    3bfc:	46 27       	eor	r20, r22
    3bfe:	f9 01       	movw	r30, r18
    3c00:	40 83       	st	Z, r20
    3c02:	9c 01       	movw	r18, r24
    3c04:	c9 01       	movw	r24, r18
    3c06:	01 96       	adiw	r24, 0x01	; 1
    3c08:	a7 01       	movw	r20, r14
    3c0a:	7a 01       	movw	r14, r20
    3c0c:	ff ef       	ldi	r31, 0xFF	; 255
    3c0e:	ef 1a       	sub	r14, r31
    3c10:	ff 0a       	sbc	r15, r31
    3c12:	fa 01       	movw	r30, r20
    3c14:	60 81       	ld	r22, Z
    3c16:	a8 01       	movw	r20, r16
    3c18:	8a 01       	movw	r16, r20
    3c1a:	0f 5f       	subi	r16, 0xFF	; 255
    3c1c:	1f 4f       	sbci	r17, 0xFF	; 255
    3c1e:	fa 01       	movw	r30, r20
    3c20:	40 81       	ld	r20, Z
    3c22:	46 27       	eor	r20, r22
    3c24:	f9 01       	movw	r30, r18
    3c26:	40 83       	st	Z, r20
    3c28:	9c 01       	movw	r18, r24
    3c2a:	c9 01       	movw	r24, r18
    3c2c:	01 96       	adiw	r24, 0x01	; 1
    3c2e:	a7 01       	movw	r20, r14
    3c30:	7a 01       	movw	r14, r20
    3c32:	ff ef       	ldi	r31, 0xFF	; 255
    3c34:	ef 1a       	sub	r14, r31
    3c36:	ff 0a       	sbc	r15, r31
    3c38:	fa 01       	movw	r30, r20
    3c3a:	60 81       	ld	r22, Z
    3c3c:	a8 01       	movw	r20, r16
    3c3e:	8a 01       	movw	r16, r20
    3c40:	0f 5f       	subi	r16, 0xFF	; 255
    3c42:	1f 4f       	sbci	r17, 0xFF	; 255
    3c44:	fa 01       	movw	r30, r20
    3c46:	40 81       	ld	r20, Z
    3c48:	46 27       	eor	r20, r22
    3c4a:	f9 01       	movw	r30, r18
    3c4c:	40 83       	st	Z, r20
    3c4e:	9c 01       	movw	r18, r24
    3c50:	c9 01       	movw	r24, r18
    3c52:	01 96       	adiw	r24, 0x01	; 1
    3c54:	a7 01       	movw	r20, r14
    3c56:	7a 01       	movw	r14, r20
    3c58:	ff ef       	ldi	r31, 0xFF	; 255
    3c5a:	ef 1a       	sub	r14, r31
    3c5c:	ff 0a       	sbc	r15, r31
    3c5e:	fa 01       	movw	r30, r20
    3c60:	60 81       	ld	r22, Z
    3c62:	a8 01       	movw	r20, r16
    3c64:	8a 01       	movw	r16, r20
    3c66:	0f 5f       	subi	r16, 0xFF	; 255
    3c68:	1f 4f       	sbci	r17, 0xFF	; 255
    3c6a:	fa 01       	movw	r30, r20
    3c6c:	40 81       	ld	r20, Z
    3c6e:	46 27       	eor	r20, r22
    3c70:	f9 01       	movw	r30, r18
    3c72:	40 83       	st	Z, r20
    3c74:	9c 01       	movw	r18, r24
    3c76:	c9 01       	movw	r24, r18
    3c78:	01 96       	adiw	r24, 0x01	; 1
    3c7a:	a7 01       	movw	r20, r14
    3c7c:	7a 01       	movw	r14, r20
    3c7e:	ff ef       	ldi	r31, 0xFF	; 255
    3c80:	ef 1a       	sub	r14, r31
    3c82:	ff 0a       	sbc	r15, r31
    3c84:	fa 01       	movw	r30, r20
    3c86:	60 81       	ld	r22, Z
    3c88:	a8 01       	movw	r20, r16
    3c8a:	8a 01       	movw	r16, r20
    3c8c:	0f 5f       	subi	r16, 0xFF	; 255
    3c8e:	1f 4f       	sbci	r17, 0xFF	; 255
    3c90:	fa 01       	movw	r30, r20
    3c92:	40 81       	ld	r20, Z
    3c94:	46 27       	eor	r20, r22
    3c96:	f9 01       	movw	r30, r18
    3c98:	40 83       	st	Z, r20
    3c9a:	9c 01       	movw	r18, r24
    3c9c:	c9 01       	movw	r24, r18
    3c9e:	01 96       	adiw	r24, 0x01	; 1
    3ca0:	a7 01       	movw	r20, r14
    3ca2:	7a 01       	movw	r14, r20
    3ca4:	ff ef       	ldi	r31, 0xFF	; 255
    3ca6:	ef 1a       	sub	r14, r31
    3ca8:	ff 0a       	sbc	r15, r31
    3caa:	fa 01       	movw	r30, r20
    3cac:	60 81       	ld	r22, Z
    3cae:	a8 01       	movw	r20, r16
    3cb0:	8a 01       	movw	r16, r20
    3cb2:	0f 5f       	subi	r16, 0xFF	; 255
    3cb4:	1f 4f       	sbci	r17, 0xFF	; 255
    3cb6:	fa 01       	movw	r30, r20
    3cb8:	40 81       	ld	r20, Z
    3cba:	46 27       	eor	r20, r22
    3cbc:	f9 01       	movw	r30, r18
    3cbe:	40 83       	st	Z, r20
    3cc0:	9c 01       	movw	r18, r24
    3cc2:	c9 01       	movw	r24, r18
    3cc4:	01 96       	adiw	r24, 0x01	; 1
    3cc6:	a7 01       	movw	r20, r14
    3cc8:	7a 01       	movw	r14, r20
    3cca:	ff ef       	ldi	r31, 0xFF	; 255
    3ccc:	ef 1a       	sub	r14, r31
    3cce:	ff 0a       	sbc	r15, r31
    3cd0:	fa 01       	movw	r30, r20
    3cd2:	60 81       	ld	r22, Z
    3cd4:	a8 01       	movw	r20, r16
    3cd6:	8a 01       	movw	r16, r20
    3cd8:	0f 5f       	subi	r16, 0xFF	; 255
    3cda:	1f 4f       	sbci	r17, 0xFF	; 255
    3cdc:	fa 01       	movw	r30, r20
    3cde:	40 81       	ld	r20, Z
    3ce0:	46 27       	eor	r20, r22
    3ce2:	f9 01       	movw	r30, r18
    3ce4:	40 83       	st	Z, r20
    3ce6:	9c 01       	movw	r18, r24
    3ce8:	c9 01       	movw	r24, r18
    3cea:	01 96       	adiw	r24, 0x01	; 1
    3cec:	c7 01       	movw	r24, r14
    3cee:	7c 01       	movw	r14, r24
    3cf0:	ff ef       	ldi	r31, 0xFF	; 255
    3cf2:	ef 1a       	sub	r14, r31
    3cf4:	ff 0a       	sbc	r15, r31
    3cf6:	fc 01       	movw	r30, r24
    3cf8:	40 81       	ld	r20, Z
    3cfa:	c8 01       	movw	r24, r16
    3cfc:	8c 01       	movw	r16, r24
    3cfe:	0f 5f       	subi	r16, 0xFF	; 255
    3d00:	1f 4f       	sbci	r17, 0xFF	; 255
    3d02:	fc 01       	movw	r30, r24
    3d04:	80 81       	ld	r24, Z
    3d06:	84 27       	eor	r24, r20
    3d08:	f9 01       	movw	r30, r18
    3d0a:	80 83       	st	Z, r24
    3d0c:	00 00       	nop
    3d0e:	df 91       	pop	r29
    3d10:	cf 91       	pop	r28
    3d12:	1f 91       	pop	r17
    3d14:	0f 91       	pop	r16
    3d16:	ff 90       	pop	r15
    3d18:	ef 90       	pop	r14
    3d1a:	df 90       	pop	r13
    3d1c:	cf 90       	pop	r12
    3d1e:	bf 90       	pop	r11
    3d20:	af 90       	pop	r10
    3d22:	9f 90       	pop	r9
    3d24:	08 95       	ret

00003d26 <main>:
    3d26:	1f 93       	push	r17
    3d28:	cf 93       	push	r28
    3d2a:	df 93       	push	r29
    3d2c:	cd b7       	in	r28, 0x3d	; 61
    3d2e:	de b7       	in	r29, 0x3e	; 62
    3d30:	c4 5e       	subi	r28, 0xE4	; 228
    3d32:	d1 09       	sbc	r29, r1
    3d34:	0f b6       	in	r0, 0x3f	; 63
    3d36:	f8 94       	cli
    3d38:	de bf       	out	0x3e, r29	; 62
    3d3a:	0f be       	out	0x3f, r0	; 63
    3d3c:	cd bf       	out	0x3d, r28	; 61
    3d3e:	9e 01       	movw	r18, r28
    3d40:	2f 51       	subi	r18, 0x1F	; 31
    3d42:	3f 4f       	sbci	r19, 0xFF	; 255
    3d44:	f9 01       	movw	r30, r18
    3d46:	91 83       	std	Z+1, r25	; 0x01
    3d48:	80 83       	st	Z, r24
    3d4a:	ce 01       	movw	r24, r28
    3d4c:	8d 51       	subi	r24, 0x1D	; 29
    3d4e:	9f 4f       	sbci	r25, 0xFF	; 255
    3d50:	fc 01       	movw	r30, r24
    3d52:	71 83       	std	Z+1, r23	; 0x01
    3d54:	60 83       	st	Z, r22
    3d56:	20 e1       	ldi	r18, 0x10	; 16
    3d58:	ea e0       	ldi	r30, 0x0A	; 10
    3d5a:	f3 e0       	ldi	r31, 0x03	; 3
    3d5c:	ce 01       	movw	r24, r28
    3d5e:	01 96       	adiw	r24, 0x01	; 1
    3d60:	dc 01       	movw	r26, r24
    3d62:	01 90       	ld	r0, Z+
    3d64:	0d 92       	st	X+, r0
    3d66:	2a 95       	dec	r18
    3d68:	e1 f7       	brne	.-8      	; 0x3d62 <main+0x3c>
    3d6a:	80 e1       	ldi	r24, 0x10	; 16
    3d6c:	ea e1       	ldi	r30, 0x1A	; 26
    3d6e:	f3 e0       	ldi	r31, 0x03	; 3
    3d70:	de 01       	movw	r26, r28
    3d72:	51 96       	adiw	r26, 0x11	; 17
    3d74:	01 90       	ld	r0, Z+
    3d76:	0d 92       	st	X+, r0
    3d78:	8a 95       	dec	r24
    3d7a:	e1 f7       	brne	.-8      	; 0x3d74 <main+0x4e>
    3d7c:	ce 01       	movw	r24, r28
    3d7e:	c1 96       	adiw	r24, 0x31	; 49
    3d80:	bc 01       	movw	r22, r24
    3d82:	ce 01       	movw	r24, r28
    3d84:	01 96       	adiw	r24, 0x01	; 1
    3d86:	0e 94 2a 10 	call	0x2054	; 0x2054 <aes_key_schedule_128>
    3d8a:	ae 01       	movw	r20, r28
    3d8c:	4f 5d       	subi	r20, 0xDF	; 223
    3d8e:	5f 4f       	sbci	r21, 0xFF	; 255
    3d90:	9e 01       	movw	r18, r28
    3d92:	2f 5e       	subi	r18, 0xEF	; 239
    3d94:	3f 4f       	sbci	r19, 0xFF	; 255
    3d96:	ce 01       	movw	r24, r28
    3d98:	c1 96       	adiw	r24, 0x31	; 49
    3d9a:	b9 01       	movw	r22, r18
    3d9c:	0e 94 03 09 	call	0x1206	; 0x1206 <aes_encrypt_128>
    3da0:	ae 01       	movw	r20, r28
    3da2:	4f 5d       	subi	r20, 0xDF	; 223
    3da4:	5f 4f       	sbci	r21, 0xFF	; 255
    3da6:	9e 01       	movw	r18, r28
    3da8:	2f 5d       	subi	r18, 0xDF	; 223
    3daa:	3f 4f       	sbci	r19, 0xFF	; 255
    3dac:	ce 01       	movw	r24, r28
    3dae:	c1 96       	adiw	r24, 0x31	; 49
    3db0:	b9 01       	movw	r22, r18
    3db2:	0e 94 a6 00 	call	0x14c	; 0x14c <aes_decrypt_128>
    3db6:	10 e0       	ldi	r17, 0x00	; 0
    3db8:	17 c0       	rjmp	.+46     	; 0x3de8 <main+0xc2>
    3dba:	81 2f       	mov	r24, r17
    3dbc:	90 e0       	ldi	r25, 0x00	; 0
    3dbe:	9e 01       	movw	r18, r28
    3dc0:	2f 5d       	subi	r18, 0xDF	; 223
    3dc2:	3f 4f       	sbci	r19, 0xFF	; 255
    3dc4:	82 0f       	add	r24, r18
    3dc6:	93 1f       	adc	r25, r19
    3dc8:	fc 01       	movw	r30, r24
    3dca:	40 81       	ld	r20, Z
    3dcc:	81 2f       	mov	r24, r17
    3dce:	90 e0       	ldi	r25, 0x00	; 0
    3dd0:	9e 01       	movw	r18, r28
    3dd2:	2f 5e       	subi	r18, 0xEF	; 239
    3dd4:	3f 4f       	sbci	r19, 0xFF	; 255
    3dd6:	82 0f       	add	r24, r18
    3dd8:	93 1f       	adc	r25, r19
    3dda:	fc 01       	movw	r30, r24
    3ddc:	80 81       	ld	r24, Z
    3dde:	48 17       	cp	r20, r24
    3de0:	31 f4       	brne	.+12     	; 0x3dee <main+0xc8>
    3de2:	81 2f       	mov	r24, r17
    3de4:	11 e0       	ldi	r17, 0x01	; 1
    3de6:	18 0f       	add	r17, r24
    3de8:	10 31       	cpi	r17, 0x10	; 16
    3dea:	38 f3       	brcs	.-50     	; 0x3dba <main+0x94>
    3dec:	01 c0       	rjmp	.+2      	; 0x3df0 <main+0xca>
    3dee:	00 00       	nop
    3df0:	80 e0       	ldi	r24, 0x00	; 0
    3df2:	90 e0       	ldi	r25, 0x00	; 0
    3df4:	cc 51       	subi	r28, 0x1C	; 28
    3df6:	df 4f       	sbci	r29, 0xFF	; 255
    3df8:	0f b6       	in	r0, 0x3f	; 63
    3dfa:	f8 94       	cli
    3dfc:	de bf       	out	0x3e, r29	; 62
    3dfe:	0f be       	out	0x3f, r0	; 63
    3e00:	cd bf       	out	0x3d, r28	; 61
    3e02:	df 91       	pop	r29
    3e04:	cf 91       	pop	r28
    3e06:	1f 91       	pop	r17
    3e08:	08 95       	ret

00003e0a <_exit>:
    3e0a:	f8 94       	cli

00003e0c <__stop_program>:
    3e0c:	ff cf       	rjmp	.-2      	; 0x3e0c <__stop_program>
